(lp0
(lp1
I-60
aI-67
aI-3
aI45
aI-3
aI10
aI-7
aI-91
aI-87
aI30
aI30
aI-82
aI-48
aI4
aI68
aI76
aI28
aI20
aI79
aI-62
aI-39
aI-26
aI3
aI-47
aI45
aI66
aI-62
aI100
aI35
aI1
aI-49
aI40
aI-56
aI22
aI-15
aI-51
aI-94
aI52
aI5
aI3
aI-26
aI-27
aI-70
aI66
aI22
aI11
aI-96
aI42
aI-29
aI-93
aI-91
aI2
aI21
aI53
aI-28
aI-98
aI-31
aI-53
aI7
aI-71
aI-25
aI91
aI-82
aI7
aI91
aI-72
aI16
aI95
aI-8
aI36
aI26
aI-46
aI-66
aI-27
aI-43
aI9
aI-9
aI81
aI-38
aI-37
aI-95
aI30
aI91
aI21
aI-26
aI77
aI5
aI-11
aI-58
aI-65
aI-92
aI-36
aI-16
aI43
aI72
aI-32
aI-55
aI-69
aI98
aI81
aa(lp2
I-25
aI-86
aI91
aI-98
aI-21
aI-30
aI-30
aI-100
aI1
aI41
aI-20
aI-40
aI47
aI54
aI-47
aI-66
aI-40
aI89
aI-4
aI-59
aI-96
aI89
aI-25
aI-11
aI95
aI33
aI32
aI74
aI80
aI-9
aI23
aI-17
aI24
aI-77
aI-1
aI-97
aI5
aI-19
aI82
aI41
aI-3
aI67
aI71
aI-91
aI90
aI-73
aI-82
aI84
aI36
aI45
aI72
aI-61
aI78
aI-27
aI2
aI75
aI-48
aI-91
aI44
aI-34
aI96
aI-44
aI10
aI69
aI57
aI19
aI-32
aI23
aI-85
aI14
aI-77
aI-13
aI4
aI-46
aI41
aI21
aI86
aI-57
aI-29
aI-79
aI32
aI49
aI67
aI-80
aI67
aI42
aI-28
aI-41
aI63
aI66
aI-10
aI48
aI-55
aI-47
aI-8
aI-77
aI-5
aI73
aI15
aI-72
aa(lp3
I100
aI-19
aI46
aI-73
aI-52
aI-74
aI11
aI5
aI32
aI13
aI-49
aI13
aI-36
aI95
aI-68
aI-11
aI52
aI67
aI-2
aI58
aI-45
aI-37
aI-86
aI71
aI46
aI-35
aI-88
aI25
aI98
aI-19
aI22
aI41
aI2
aI86
aI-71
aI79
aI-91
aI-63
aI-99
aI-38
aI-31
aI-99
aI95
aI61
aI-30
aI-98
aI-79
aI8
aI62
aI-5
aI29
aI-21
aI86
aI45
aI100
aI-98
aI-97
aI28
aI-38
aI86
aI-57
aI85
aI-56
aI-68
aI-12
aI18
aI-14
aI17
aI-12
aI0
aI-87
aI-53
aI-64
aI39
aI-49
aI-8
aI0
aI48
aI92
aI-90
aI99
aI18
aI-41
aI-13
aI-27
aI91
aI70
aI-63
aI18
aI31
aI33
aI42
aI-52
aI-15
aI34
aI56
aI-24
aI-12
aI0
aI-46
aa(lp4
I50
aI-44
aI-18
aI26
aI-19
aI-2
aI-54
aI-34
aI-31
aI17
aI-37
aI-88
aI2
aI42
aI70
aI-89
aI91
aI-43
aI-98
aI99
aI-3
aI7
aI-11
aI-98
aI-94
aI96
aI94
aI-64
aI-2
aI-75
aI-52
aI-69
aI21
aI71
aI-87
aI26
aI49
aI44
aI-90
aI92
aI27
aI48
aI-76
aI71
aI5
aI-37
aI31
aI41
aI-3
aI-73
aI-6
aI17
aI69
aI38
aI79
aI5
aI-25
aI62
aI-70
aI82
aI-70
aI44
aI92
aI88
aI57
aI5
aI93
aI-76
aI54
aI-30
aI-62
aI72
aI-9
aI99
aI1
aI64
aI38
aI46
aI12
aI57
aI49
aI63
aI57
aI74
aI-68
aI80
aI-84
aI-18
aI77
aI68
aI56
aI75
aI-4
aI-31
aI-19
aI76
aI9
aI-83
aI-54
aI-38
aa(lp5
I-47
aI-92
aI17
aI-30
aI-4
aI81
aI19
aI-5
aI-14
aI30
aI74
aI22
aI-48
aI-73
aI73
aI-20
aI10
aI-11
aI97
aI35
aI85
aI62
aI-6
aI99
aI84
aI-27
aI53
aI-16
aI84
aI-66
aI89
aI14
aI-20
aI-55
aI-24
aI60
aI-59
aI5
aI-48
aI49
aI-93
aI14
aI21
aI-7
aI-98
aI30
aI91
aI1
aI19
aI-63
aI-2
aI51
aI74
aI-1
aI-43
aI75
aI74
aI-71
aI63
aI-38
aI-2
aI-93
aI-98
aI-88
aI-54
aI16
aI-34
aI-36
aI-67
aI20
aI-47
aI72
aI-42
aI-56
aI43
aI65
aI97
aI20
aI58
aI-39
aI87
aI53
aI27
aI-7
aI-9
aI-68
aI-84
aI50
aI-61
aI71
aI74
aI-55
aI-72
aI82
aI32
aI-17
aI30
aI28
aI40
aI-5
aa(lp6
I1
aI-10
aI-70
aI-6
aI-56
aI-20
aI85
aI14
aI19
aI-91
aI72
aI-78
aI-64
aI88
aI0
aI-75
aI-87
aI-84
aI-5
aI-59
aI100
aI3
aI91
aI-70
aI5
aI-61
aI24
aI-21
aI53
aI55
aI-71
aI-82
aI-80
aI-18
aI10
aI92
aI52
aI71
aI-66
aI89
aI-86
aI-45
aI-62
aI-75
aI60
aI-14
aI-7
aI-34
aI-61
aI14
aI-71
aI-70
aI-74
aI72
aI31
aI-24
aI35
aI-26
aI-46
aI59
aI24
aI89
aI97
aI-41
aI-12
aI-40
aI61
aI63
aI-68
aI55
aI89
aI-86
aI-80
aI21
aI-7
aI-3
aI-7
aI36
aI-42
aI67
aI-48
aI72
aI81
aI56
aI-74
aI-78
aI93
aI14
aI24
aI-39
aI-21
aI73
aI-66
aI-5
aI-38
aI0
aI-97
aI90
aI-50
aI-96
aa(lp7
I-74
aI-91
aI-55
aI-14
aI79
aI4
aI-99
aI-98
aI70
aI12
aI-66
aI-50
aI94
aI-81
aI18
aI37
aI68
aI70
aI-14
aI-54
aI-85
aI63
aI35
aI-17
aI95
aI-55
aI-87
aI-49
aI98
aI1
aI-4
aI84
aI63
aI-80
aI63
aI-40
aI11
aI71
aI-77
aI-67
aI54
aI72
aI77
aI17
aI71
aI-63
aI7
aI-9
aI-42
aI70
aI-28
aI-96
aI76
aI84
aI12
aI92
aI39
aI-41
aI84
aI-67
aI23
aI1
aI57
aI-91
aI-98
aI77
aI-50
aI-96
aI-4
aI-64
aI12
aI75
aI-28
aI-4
aI24
aI-58
aI24
aI-42
aI-71
aI-70
aI82
aI64
aI22
aI-44
aI69
aI55
aI-15
aI42
aI-45
aI-32
aI-39
aI-99
aI20
aI5
aI48
aI-59
aI-65
aI-80
aI55
aI-6
aa(lp8
I19
aI-62
aI34
aI10
aI21
aI-96
aI-2
aI-77
aI6
aI15
aI69
aI22
aI71
aI19
aI-93
aI17
aI-13
aI-72
aI60
aI-1
aI-62
aI28
aI-18
aI-43
aI84
aI45
aI86
aI-71
aI81
aI41
aI42
aI-73
aI-80
aI-2
aI37
aI-55
aI-60
aI-9
aI84
aI1
aI28
aI-13
aI-64
aI97
aI32
aI29
aI10
aI53
aI57
aI-79
aI46
aI-79
aI-29
aI14
aI28
aI28
aI-41
aI-15
aI53
aI88
aI-14
aI-44
aI99
aI-6
aI-7
aI-60
aI-43
aI-22
aI24
aI-69
aI49
aI19
aI-36
aI76
aI-24
aI75
aI-62
aI51
aI17
aI-2
aI-32
aI-99
aI15
aI44
aI55
aI26
aI-57
aI-33
aI-47
aI65
aI-68
aI-5
aI55
aI-48
aI27
aI7
aI57
aI-77
aI-1
aI-24
aa(lp9
I4
aI74
aI-77
aI-35
aI13
aI-28
aI-53
aI-3
aI58
aI-77
aI35
aI97
aI3
aI31
aI-57
aI-37
aI-82
aI-62
aI-76
aI-3
aI42
aI-82
aI-87
aI-42
aI-49
aI-86
aI63
aI84
aI-19
aI54
aI28
aI-66
aI-24
aI41
aI85
aI53
aI-39
aI-58
aI87
aI-66
aI91
aI-1
aI-99
aI-45
aI61
aI99
aI-63
aI-42
aI79
aI8
aI75
aI-12
aI-40
aI85
aI-97
aI13
aI33
aI58
aI-44
aI19
aI80
aI-69
aI-48
aI7
aI46
aI44
aI-37
aI-91
aI-6
aI-93
aI-51
aI15
aI-57
aI82
aI31
aI15
aI12
aI97
aI1
aI32
aI33
aI-26
aI-43
aI-76
aI48
aI-32
aI35
aI93
aI70
aI-19
aI-17
aI86
aI10
aI-40
aI-8
aI-3
aI-73
aI-24
aI-56
aI33
aa(lp10
I4
aI96
aI-35
aI38
aI5
aI-12
aI25
aI37
aI45
aI-5
aI43
aI-76
aI-68
aI-81
aI29
aI92
aI-51
aI-100
aI-47
aI-47
aI33
aI-9
aI-47
aI-19
aI-87
aI63
aI-91
aI-90
aI11
aI24
aI-28
aI1
aI-79
aI-11
aI-65
aI14
aI20
aI-14
aI-22
aI51
aI-96
aI76
aI-15
aI32
aI-13
aI24
aI-39
aI-20
aI5
aI-80
aI74
aI40
aI30
aI-75
aI-23
aI-50
aI99
aI-92
aI58
aI38
aI-52
aI89
aI25
aI-54
aI49
aI-24
aI-78
aI50
aI87
aI3
aI-71
aI72
aI84
aI-86
aI-60
aI-77
aI86
aI-84
aI-20
aI22
aI55
aI14
aI26
aI1
aI81
aI-65
aI61
aI44
aI16
aI-9
aI12
aI-24
aI37
aI11
aI-92
aI85
aI48
aI64
aI27
aI35
aa(lp11
I-36
aI-63
aI-69
aI94
aI-57
aI59
aI70
aI62
aI-12
aI52
aI86
aI-69
aI-52
aI-9
aI25
aI-15
aI82
aI15
aI9
aI18
aI23
aI-75
aI26
aI74
aI36
aI70
aI-88
aI82
aI-54
aI72
aI33
aI40
aI-80
aI-65
aI35
aI-6
aI51
aI-100
aI61
aI57
aI-57
aI-35
aI4
aI55
aI72
aI-90
aI72
aI23
aI36
aI89
aI-100
aI-61
aI1
aI29
aI-74
aI6
aI-76
aI86
aI-44
aI71
aI-79
aI63
aI20
aI-38
aI-52
aI-92
aI-91
aI-74
aI0
aI58
aI80
aI3
aI-6
aI-11
aI-83
aI-80
aI-66
aI-30
aI7
aI-44
aI-98
aI-41
aI36
aI18
aI99
aI32
aI34
aI13
aI7
aI-58
aI-97
aI-88
aI-55
aI-97
aI97
aI3
aI-92
aI-37
aI52
aI33
aa(lp12
I67
aI65
aI-87
aI-92
aI-97
aI7
aI16
aI-13
aI-5
aI88
aI-31
aI53
aI-30
aI53
aI-79
aI0
aI-94
aI51
aI15
aI-52
aI-27
aI-47
aI-86
aI10
aI53
aI-44
aI60
aI-15
aI83
aI44
aI59
aI-74
aI45
aI-29
aI-39
aI92
aI-61
aI33
aI54
aI-60
aI85
aI-6
aI57
aI28
aI16
aI-92
aI1
aI-97
aI-22
aI-53
aI-49
aI-93
aI-16
aI-2
aI13
aI52
aI-56
aI-19
aI-48
aI-84
aI-18
aI3
aI-100
aI83
aI40
aI85
aI95
aI-69
aI22
aI45
aI63
aI-9
aI-75
aI-29
aI70
aI92
aI-40
aI-87
aI-81
aI-78
aI38
aI-17
aI53
aI32
aI93
aI34
aI28
aI33
aI47
aI-62
aI22
aI-24
aI-92
aI30
aI53
aI61
aI-1
aI-16
aI90
aI-8
aa(lp13
I-94
aI88
aI-96
aI35
aI-66
aI-80
aI89
aI-92
aI-34
aI-19
aI-12
aI-25
aI-60
aI-97
aI56
aI-99
aI92
aI-50
aI96
aI14
aI74
aI-87
aI67
aI90
aI96
aI95
aI5
aI-14
aI39
aI-77
aI18
aI88
aI-43
aI-66
aI-7
aI-99
aI-87
aI79
aI-16
aI73
aI-43
aI62
aI-66
aI47
aI17
aI54
aI-6
aI61
aI3
aI47
aI4
aI63
aI71
aI-13
aI-78
aI-46
aI66
aI-43
aI35
aI-57
aI-64
aI-16
aI95
aI59
aI89
aI96
aI93
aI-79
aI22
aI-37
aI92
aI-95
aI69
aI46
aI98
aI-81
aI34
aI-13
aI7
aI43
aI-34
aI-48
aI47
aI-77
aI-25
aI-71
aI66
aI91
aI34
aI-75
aI-65
aI53
aI20
aI-65
aI-60
aI-76
aI61
aI-38
aI56
aI-9
aa(lp14
I70
aI-4
aI98
aI-68
aI79
aI-57
aI-22
aI-96
aI57
aI-88
aI1
aI52
aI-52
aI-17
aI16
aI38
aI12
aI-24
aI88
aI41
aI-37
aI16
aI-72
aI11
aI-60
aI81
aI39
aI-65
aI4
aI19
aI-91
aI-18
aI50
aI75
aI-90
aI-19
aI-19
aI65
aI-11
aI-89
aI66
aI87
aI54
aI85
aI-6
aI49
aI3
aI-37
aI-88
aI-92
aI64
aI11
aI-73
aI-58
aI-20
aI-7
aI22
aI-15
aI-41
aI-22
aI-22
aI30
aI-70
aI-81
aI-50
aI-57
aI47
aI-41
aI94
aI78
aI-46
aI6
aI-19
aI78
aI-41
aI-69
aI81
aI-81
aI14
aI13
aI82
aI-55
aI44
aI-30
aI-28
aI84
aI-86
aI31
aI-96
aI-33
aI41
aI8
aI69
aI-33
aI-77
aI87
aI-88
aI-86
aI100
aI-95
aa(lp15
I89
aI-22
aI-10
aI80
aI-98
aI16
aI72
aI-37
aI63
aI-21
aI-72
aI29
aI-45
aI0
aI59
aI-47
aI68
aI40
aI-19
aI-24
aI42
aI-96
aI-97
aI-63
aI47
aI91
aI-22
aI-30
aI-26
aI13
aI80
aI-74
aI-96
aI-88
aI-57
aI65
aI54
aI-69
aI94
aI-36
aI95
aI-68
aI96
aI45
aI-66
aI-27
aI-97
aI-46
aI66
aI13
aI-66
aI64
aI-20
aI21
aI-74
aI-15
aI-39
aI50
aI-2
aI45
aI-66
aI13
aI-17
aI-65
aI10
aI18
aI-25
aI-26
aI-25
aI74
aI68
aI-70
aI-44
aI-71
aI-27
aI84
aI31
aI92
aI17
aI-38
aI-85
aI-17
aI-37
aI-3
aI53
aI-99
aI23
aI-80
aI30
aI-41
aI-53
aI1
aI83
aI14
aI69
aI78
aI41
aI83
aI20
aI-91
aa(lp16
I-39
aI-16
aI-67
aI71
aI-51
aI-9
aI-68
aI22
aI-61
aI17
aI-93
aI76
aI74
aI-99
aI-24
aI-95
aI1
aI58
aI-73
aI57
aI-76
aI-70
aI-98
aI-88
aI81
aI-5
aI24
aI66
aI-38
aI54
aI67
aI63
aI88
aI-96
aI42
aI-36
aI-94
aI-39
aI70
aI16
aI19
aI2
aI-92
aI-32
aI80
aI69
aI-25
aI1
aI43
aI10
aI24
aI61
aI62
aI-19
aI-25
aI-4
aI67
aI-52
aI2
aI-4
aI-3
aI56
aI80
aI57
aI87
aI41
aI-46
aI82
aI-48
aI-27
aI-56
aI-40
aI99
aI88
aI-41
aI-6
aI-58
aI-79
aI44
aI89
aI45
aI21
aI34
aI70
aI-63
aI-93
aI97
aI14
aI-29
aI-19
aI29
aI-66
aI21
aI-10
aI-17
aI22
aI48
aI25
aI-65
aI-72
aa(lp17
I18
aI63
aI-11
aI81
aI61
aI41
aI41
aI-77
aI33
aI-25
aI40
aI89
aI-74
aI-79
aI-62
aI-71
aI52
aI87
aI46
aI-85
aI47
aI5
aI51
aI58
aI-1
aI29
aI57
aI-83
aI82
aI-37
aI-43
aI61
aI41
aI-49
aI-9
aI-22
aI-51
aI-1
aI-5
aI1
aI-53
aI-27
aI-54
aI56
aI30
aI-5
aI-57
aI46
aI-40
aI69
aI-98
aI-21
aI-60
aI78
aI-41
aI60
aI47
aI14
aI-2
aI-87
aI32
aI-41
aI99
aI-71
aI-37
aI95
aI78
aI-12
aI-7
aI-90
aI78
aI-77
aI-12
aI-46
aI-88
aI84
aI-63
aI70
aI-92
aI16
aI-82
aI-68
aI58
aI-90
aI62
aI-53
aI79
aI96
aI13
aI86
aI-34
aI74
aI-43
aI91
aI-59
aI-87
aI-42
aI-32
aI-36
aI78
aa(lp18
I-16
aI-81
aI-89
aI36
aI92
aI38
aI-56
aI-37
aI-53
aI-75
aI-12
aI51
aI15
aI-74
aI87
aI89
aI-39
aI22
aI-16
aI22
aI-41
aI5
aI-99
aI92
aI90
aI-17
aI-63
aI-54
aI-17
aI90
aI-7
aI87
aI-74
aI25
aI40
aI7
aI66
aI73
aI20
aI21
aI44
aI-14
aI-10
aI-45
aI59
aI-48
aI-98
aI-35
aI69
aI-51
aI-27
aI-6
aI56
aI28
aI91
aI93
aI-88
aI-54
aI61
aI-87
aI52
aI35
aI-45
aI-45
aI-91
aI53
aI48
aI56
aI69
aI52
aI82
aI-59
aI-37
aI-31
aI-7
aI14
aI86
aI83
aI43
aI-57
aI-95
aI-17
aI-29
aI85
aI-90
aI0
aI-52
aI90
aI-41
aI25
aI36
aI-36
aI94
aI53
aI75
aI-50
aI-47
aI66
aI53
aI-66
aa(lp19
I-73
aI-19
aI-20
aI-93
aI-85
aI-61
aI78
aI-87
aI18
aI-65
aI72
aI-93
aI-69
aI-80
aI12
aI-99
aI-59
aI-41
aI26
aI-52
aI2
aI49
aI48
aI69
aI-35
aI8
aI-20
aI-1
aI62
aI49
aI41
aI84
aI73
aI79
aI-79
aI-71
aI-88
aI74
aI87
aI49
aI-100
aI68
aI19
aI-47
aI-14
aI-72
aI-86
aI28
aI5
aI-84
aI29
aI3
aI90
aI4
aI-19
aI-37
aI60
aI-5
aI30
aI0
aI92
aI21
aI-10
aI-74
aI-26
aI54
aI79
aI28
aI45
aI-43
aI9
aI-39
aI-33
aI-82
aI-50
aI-66
aI-32
aI3
aI26
aI-47
aI55
aI-43
aI-62
aI-72
aI-47
aI-82
aI-64
aI-79
aI85
aI85
aI-73
aI71
aI-14
aI69
aI10
aI-48
aI13
aI-35
aI31
aI-27
aa(lp20
I0
aI-47
aI-39
aI-4
aI53
aI-41
aI34
aI-35
aI100
aI1
aI85
aI-94
aI-14
aI48
aI-88
aI18
aI-91
aI-76
aI-85
aI43
aI-16
aI-29
aI3
aI-75
aI50
aI-22
aI27
aI-58
aI-43
aI-12
aI4
aI-29
aI98
aI-12
aI-22
aI6
aI59
aI-66
aI71
aI-81
aI28
aI27
aI88
aI45
aI50
aI-72
aI-41
aI-10
aI35
aI-96
aI-6
aI19
aI-28
aI5
aI8
aI-49
aI70
aI81
aI69
aI62
aI-95
aI-12
aI23
aI-90
aI-64
aI37
aI-13
aI49
aI-57
aI82
aI-43
aI-85
aI86
aI-72
aI-20
aI86
aI34
aI-39
aI16
aI-88
aI44
aI19
aI-5
aI31
aI-85
aI57
aI8
aI-42
aI-30
aI63
aI-64
aI42
aI-88
aI41
aI-19
aI-17
aI-73
aI-91
aI51
aI10
aa(lp21
I-82
aI79
aI4
aI67
aI78
aI84
aI100
aI-94
aI84
aI31
aI-50
aI83
aI-5
aI-27
aI7
aI-32
aI-18
aI-59
aI-43
aI-79
aI12
aI-11
aI-4
aI50
aI-14
aI86
aI-85
aI-21
aI95
aI93
aI65
aI61
aI40
aI21
aI-94
aI-81
aI81
aI-25
aI-17
aI3
aI7
aI-93
aI-57
aI0
aI-56
aI15
aI-19
aI-43
aI17
aI-7
aI-93
aI-65
aI-53
aI-8
aI58
aI76
aI-13
aI-49
aI27
aI90
aI-69
aI69
aI0
aI-67
aI-28
aI13
aI-95
aI-78
aI64
aI-54
aI35
aI-98
aI36
aI95
aI-62
aI-60
aI31
aI73
aI18
aI-15
aI46
aI-5
aI52
aI100
aI-77
aI-8
aI-86
aI-34
aI-64
aI-47
aI28
aI-72
aI11
aI58
aI-39
aI-68
aI7
aI-27
aI-18
aI-43
aa(lp22
I-49
aI-51
aI-99
aI-86
aI-36
aI-22
aI-99
aI-29
aI26
aI-20
aI62
aI14
aI99
aI-82
aI-34
aI-30
aI64
aI-96
aI98
aI2
aI-35
aI-1
aI-75
aI-62
aI54
aI9
aI-61
aI-92
aI-20
aI-61
aI-31
aI-84
aI-30
aI69
aI89
aI30
aI-92
aI-69
aI79
aI91
aI-3
aI-36
aI23
aI-15
aI98
aI24
aI-66
aI-64
aI-77
aI-58
aI22
aI-100
aI15
aI5
aI42
aI-95
aI-9
aI-78
aI-88
aI60
aI17
aI4
aI-29
aI58
aI-60
aI41
aI-32
aI93
aI-15
aI36
aI-79
aI1
aI27
aI-96
aI11
aI98
aI-17
aI4
aI-38
aI25
aI93
aI59
aI24
aI79
aI25
aI-68
aI62
aI-87
aI-81
aI16
aI-98
aI-87
aI85
aI-18
aI77
aI95
aI9
aI-82
aI-84
aI76
aa(lp23
I-80
aI-1
aI13
aI-50
aI56
aI69
aI29
aI-25
aI-65
aI7
aI13
aI31
aI-48
aI-90
aI83
aI-95
aI0
aI-42
aI-80
aI-70
aI18
aI-46
aI14
aI-72
aI76
aI-33
aI-44
aI-34
aI13
aI-15
aI40
aI88
aI-91
aI7
aI-22
aI88
aI-34
aI-53
aI94
aI38
aI-21
aI-2
aI-58
aI-42
aI-31
aI45
aI-48
aI82
aI-99
aI-89
aI-45
aI67
aI88
aI-88
aI-10
aI-12
aI-59
aI32
aI49
aI-81
aI9
aI14
aI-24
aI84
aI56
aI16
aI56
aI78
aI-61
aI79
aI71
aI-80
aI-56
aI-69
aI40
aI38
aI99
aI-75
aI45
aI-38
aI62
aI83
aI-44
aI-19
aI-23
aI22
aI45
aI48
aI18
aI-79
aI-69
aI50
aI57
aI-43
aI21
aI-56
aI-8
aI31
aI77
aI43
aa(lp24
I-39
aI91
aI54
aI-37
aI-85
aI-13
aI-59
aI-79
aI99
aI34
aI-10
aI100
aI86
aI-16
aI60
aI-19
aI-26
aI50
aI33
aI-75
aI-9
aI3
aI-97
aI-83
aI26
aI10
aI-81
aI-60
aI75
aI53
aI-6
aI22
aI-18
aI58
aI83
aI-49
aI-19
aI-53
aI85
aI29
aI-7
aI-20
aI63
aI43
aI74
aI-1
aI98
aI1
aI-70
aI-8
aI23
aI29
aI-44
aI-18
aI10
aI-95
aI2
aI52
aI-36
aI1
aI-22
aI-3
aI71
aI6
aI28
aI19
aI-34
aI-60
aI-62
aI98
aI44
aI-11
aI34
aI-95
aI-21
aI-30
aI84
aI-26
aI13
aI36
aI65
aI62
aI-88
aI-29
aI64
aI18
aI-27
aI-8
aI47
aI-27
aI-27
aI86
aI-51
aI-91
aI-84
aI73
aI-60
aI-35
aI91
aI-37
aa(lp25
I32
aI-19
aI-91
aI20
aI8
aI-10
aI-62
aI-68
aI-31
aI-46
aI76
aI-12
aI64
aI-21
aI14
aI-21
aI-84
aI39
aI-35
aI-49
aI57
aI13
aI-65
aI-71
aI-50
aI-3
aI54
aI-7
aI-63
aI75
aI-69
aI-7
aI96
aI-38
aI-43
aI-23
aI-83
aI-84
aI83
aI97
aI37
aI-67
aI100
aI-63
aI100
aI-28
aI17
aI-51
aI-98
aI-95
aI-96
aI-13
aI42
aI0
aI-5
aI85
aI22
aI98
aI82
aI-52
aI16
aI-87
aI-78
aI-92
aI-25
aI50
aI43
aI6
aI75
aI-79
aI-95
aI85
aI-58
aI-2
aI53
aI-24
aI-12
aI-2
aI-9
aI-16
aI28
aI-1
aI-13
aI79
aI33
aI74
aI83
aI-16
aI63
aI100
aI-89
aI-49
aI31
aI28
aI-19
aI-20
aI-33
aI-26
aI26
aI-78
aa(lp26
I11
aI-60
aI-26
aI98
aI74
aI-87
aI15
aI-90
aI82
aI-32
aI-50
aI-80
aI-57
aI5
aI42
aI90
aI11
aI63
aI83
aI24
aI-88
aI97
aI-87
aI50
aI47
aI38
aI6
aI72
aI-75
aI-20
aI31
aI66
aI-75
aI96
aI48
aI25
aI-2
aI-65
aI38
aI-50
aI-39
aI-86
aI65
aI14
aI-8
aI12
aI34
aI11
aI-71
aI60
aI-39
aI-97
aI51
aI92
aI-54
aI22
aI-23
aI-72
aI-67
aI77
aI-79
aI34
aI49
aI91
aI13
aI-29
aI97
aI78
aI-31
aI66
aI97
aI-49
aI-24
aI-13
aI-44
aI11
aI68
aI55
aI14
aI-87
aI97
aI95
aI-18
aI30
aI-72
aI-16
aI-1
aI-18
aI-87
aI3
aI8
aI40
aI52
aI82
aI-2
aI-2
aI28
aI-89
aI36
aI50
aa(lp27
I10
aI84
aI-18
aI19
aI-51
aI-18
aI30
aI42
aI46
aI2
aI-46
aI-65
aI48
aI-91
aI-7
aI-47
aI-22
aI-49
aI-75
aI42
aI-79
aI-83
aI-84
aI-14
aI-43
aI-88
aI11
aI-64
aI43
aI-5
aI55
aI5
aI-10
aI80
aI6
aI79
aI27
aI12
aI-98
aI51
aI90
aI1
aI-12
aI45
aI93
aI94
aI74
aI60
aI-42
aI-8
aI-25
aI-99
aI-80
aI-83
aI86
aI81
aI39
aI22
aI74
aI-34
aI60
aI-24
aI95
aI-59
aI11
aI82
aI-7
aI19
aI-50
aI-9
aI32
aI41
aI52
aI16
aI-70
aI76
aI-42
aI73
aI-27
aI-39
aI32
aI47
aI92
aI-29
aI-43
aI11
aI-94
aI6
aI53
aI74
aI69
aI-43
aI37
aI-36
aI-24
aI52
aI-98
aI-27
aI-75
aI-66
aa(lp28
I-97
aI31
aI-87
aI-78
aI-50
aI34
aI76
aI74
aI47
aI5
aI-23
aI-78
aI42
aI-44
aI63
aI46
aI-88
aI78
aI-37
aI-76
aI18
aI67
aI94
aI22
aI-25
aI-60
aI80
aI-76
aI6
aI89
aI-34
aI-87
aI-34
aI-49
aI4
aI24
aI97
aI80
aI44
aI-61
aI-56
aI46
aI62
aI55
aI-3
aI17
aI-13
aI8
aI-20
aI-23
aI5
aI-5
aI44
aI81
aI2
aI78
aI66
aI83
aI18
aI33
aI-13
aI22
aI19
aI-87
aI-61
aI-48
aI98
aI-29
aI33
aI-11
aI-12
aI67
aI68
aI98
aI-74
aI85
aI-44
aI-52
aI29
aI8
aI-72
aI-30
aI-70
aI-79
aI83
aI-49
aI-6
aI-49
aI-82
aI93
aI-50
aI51
aI9
aI-33
aI-87
aI-54
aI-99
aI88
aI-71
aI24
aa(lp29
I64
aI-46
aI58
aI51
aI-90
aI97
aI-79
aI-88
aI-37
aI64
aI-60
aI-22
aI-7
aI-62
aI-92
aI-40
aI57
aI31
aI-75
aI64
aI-81
aI-74
aI48
aI-58
aI-88
aI91
aI-77
aI-100
aI-25
aI-66
aI84
aI29
aI21
aI39
aI78
aI46
aI-86
aI-47
aI36
aI-55
aI-29
aI73
aI-44
aI-52
aI41
aI-25
aI-52
aI14
aI33
aI-30
aI-51
aI-79
aI-24
aI37
aI64
aI-32
aI-46
aI-32
aI86
aI-58
aI-92
aI13
aI21
aI-85
aI80
aI-6
aI-62
aI16
aI-66
aI-87
aI-68
aI41
aI-65
aI-81
aI3
aI-97
aI-81
aI86
aI25
aI47
aI-13
aI-71
aI-15
aI-61
aI64
aI-96
aI-19
aI24
aI-11
aI51
aI88
aI-42
aI-10
aI68
aI39
aI98
aI-38
aI61
aI-57
aI34
aa(lp30
I38
aI90
aI-34
aI-9
aI-71
aI65
aI73
aI-70
aI-70
aI67
aI64
aI-81
aI92
aI-42
aI5
aI-37
aI11
aI9
aI-86
aI38
aI-18
aI51
aI-4
aI-25
aI3
aI-57
aI-82
aI97
aI-58
aI-54
aI-52
aI-89
aI-94
aI-48
aI2
aI-29
aI2
aI-30
aI-62
aI41
aI-90
aI25
aI-26
aI4
aI-76
aI81
aI35
aI-54
aI55
aI70
aI-81
aI56
aI23
aI44
aI-5
aI-93
aI46
aI2
aI-67
aI-9
aI-95
aI21
aI89
aI22
aI52
aI29
aI-59
aI-71
aI84
aI24
aI-99
aI37
aI-44
aI2
aI22
aI24
aI81
aI-11
aI-43
aI21
aI-64
aI-83
aI-4
aI31
aI-82
aI15
aI78
aI-87
aI-98
aI-16
aI-96
aI41
aI-86
aI-43
aI-65
aI-32
aI99
aI-77
aI64
aI-77
aa(lp31
I-22
aI43
aI-59
aI75
aI-13
aI20
aI82
aI89
aI100
aI89
aI-98
aI97
aI10
aI-9
aI-73
aI57
aI18
aI-45
aI14
aI47
aI98
aI-83
aI20
aI64
aI-71
aI7
aI-17
aI98
aI-31
aI98
aI72
aI-37
aI11
aI51
aI90
aI-18
aI39
aI-46
aI87
aI93
aI-58
aI33
aI1
aI-82
aI74
aI-18
aI-21
aI-62
aI-6
aI-61
aI38
aI33
aI97
aI74
aI-56
aI97
aI-48
aI-27
aI69
aI-79
aI-61
aI90
aI84
aI45
aI-88
aI53
aI26
aI-2
aI11
aI32
aI-18
aI-49
aI25
aI83
aI-65
aI84
aI-59
aI16
aI-12
aI42
aI59
aI38
aI-86
aI80
aI-53
aI13
aI100
aI27
aI-10
aI-86
aI7
aI-78
aI-42
aI66
aI-64
aI40
aI-43
aI22
aI93
aI-60
aa(lp32
I90
aI-6
aI-49
aI91
aI50
aI-60
aI-68
aI-84
aI91
aI-16
aI96
aI91
aI52
aI-61
aI-77
aI-92
aI68
aI70
aI6
aI-88
aI87
aI71
aI-56
aI92
aI-7
aI13
aI-77
aI12
aI-26
aI-44
aI-79
aI-47
aI-64
aI88
aI81
aI-79
aI-23
aI-84
aI-19
aI-35
aI-45
aI-88
aI-22
aI-59
aI-41
aI88
aI-61
aI-69
aI80
aI69
aI46
aI-94
aI58
aI58
aI-22
aI-40
aI42
aI-42
aI-91
aI-5
aI-50
aI21
aI-15
aI23
aI-90
aI-97
aI-37
aI5
aI-74
aI31
aI57
aI32
aI76
aI-88
aI-81
aI20
aI33
aI-55
aI66
aI-56
aI48
aI-36
aI-41
aI-76
aI-21
aI-71
aI-47
aI5
aI-31
aI-62
aI-70
aI-21
aI27
aI-5
aI30
aI97
aI75
aI-22
aI-33
aI-48
aa(lp33
I-78
aI-100
aI87
aI84
aI-57
aI-70
aI-52
aI-54
aI-47
aI-40
aI-19
aI54
aI86
aI-13
aI-97
aI91
aI61
aI44
aI-25
aI-56
aI54
aI-77
aI-55
aI50
aI-10
aI-37
aI61
aI-62
aI-40
aI-90
aI-10
aI5
aI79
aI-25
aI-97
aI-50
aI-39
aI-30
aI99
aI12
aI-50
aI-73
aI95
aI90
aI50
aI-89
aI67
aI-85
aI-6
aI70
aI-47
aI38
aI-15
aI13
aI-24
aI63
aI70
aI47
aI-85
aI42
aI37
aI55
aI69
aI82
aI-19
aI-52
aI-4
aI3
aI-87
aI-83
aI-32
aI-65
aI-4
aI77
aI13
aI-9
aI-26
aI-40
aI-26
aI-49
aI-16
aI-71
aI-43
aI-1
aI-84
aI-32
aI55
aI-8
aI45
aI-57
aI-31
aI-2
aI-20
aI73
aI23
aI-14
aI48
aI3
aI62
aI66
aa(lp34
I28
aI-26
aI-75
aI-60
aI55
aI-96
aI60
aI-11
aI59
aI68
aI59
aI14
aI16
aI24
aI35
aI-39
aI39
aI-44
aI95
aI68
aI-38
aI-12
aI27
aI-57
aI-65
aI60
aI-85
aI-8
aI46
aI41
aI-81
aI58
aI-57
aI-33
aI100
aI37
aI50
aI93
aI97
aI-17
aI-84
aI-45
aI-93
aI-78
aI-3
aI40
aI90
aI-45
aI44
aI59
aI-68
aI-70
aI50
aI22
aI85
aI-20
aI75
aI14
aI8
aI57
aI64
aI49
aI-20
aI-28
aI17
aI62
aI-24
aI9
aI69
aI97
aI-88
aI-87
aI41
aI35
aI38
aI-20
aI50
aI-47
aI36
aI18
aI-33
aI78
aI-48
aI-54
aI-72
aI0
aI58
aI-66
aI-4
aI62
aI48
aI31
aI33
aI57
aI-30
aI4
aI-86
aI-59
aI-15
aI97
aa(lp35
I44
aI-100
aI-3
aI-90
aI-71
aI6
aI-44
aI-50
aI73
aI-40
aI-91
aI46
aI-63
aI-86
aI-24
aI13
aI77
aI-32
aI35
aI-48
aI-84
aI-46
aI33
aI27
aI99
aI-79
aI73
aI-40
aI96
aI67
aI61
aI38
aI-43
aI91
aI-55
aI-80
aI-56
aI1
aI36
aI2
aI7
aI28
aI-7
aI69
aI-65
aI24
aI26
aI-31
aI-5
aI17
aI91
aI19
aI-18
aI-84
aI98
aI5
aI39
aI-77
aI96
aI2
aI79
aI79
aI-13
aI79
aI-55
aI49
aI-23
aI82
aI-55
aI-7
aI-35
aI-57
aI-70
aI99
aI-16
aI0
aI-61
aI-36
aI4
aI82
aI30
aI24
aI25
aI47
aI31
aI96
aI-47
aI-92
aI-9
aI-58
aI54
aI99
aI5
aI-39
aI-59
aI31
aI74
aI58
aI67
aI77
aa(lp36
I-15
aI-75
aI-18
aI-92
aI81
aI50
aI-17
aI94
aI91
aI-60
aI-18
aI-86
aI67
aI80
aI49
aI36
aI-52
aI34
aI40
aI9
aI-96
aI26
aI11
aI33
aI54
aI-36
aI-56
aI30
aI-26
aI-91
aI77
aI33
aI-65
aI44
aI-23
aI5
aI73
aI-69
aI65
aI-55
aI-20
aI4
aI61
aI-6
aI44
aI0
aI-23
aI-78
aI70
aI33
aI35
aI-58
aI90
aI60
aI-11
aI55
aI-30
aI70
aI84
aI-87
aI-77
aI-7
aI69
aI44
aI-11
aI80
aI-100
aI23
aI-79
aI-84
aI-13
aI-50
aI44
aI-7
aI78
aI-23
aI-53
aI-77
aI35
aI17
aI-64
aI81
aI45
aI-12
aI78
aI4
aI-90
aI61
aI-13
aI-43
aI97
aI-81
aI33
aI-22
aI-33
aI80
aI-79
aI32
aI22
aI67
aa(lp37
I96
aI-46
aI95
aI-87
aI54
aI94
aI66
aI-65
aI-47
aI64
aI-17
aI-55
aI21
aI5
aI36
aI73
aI0
aI-60
aI-95
aI21
aI52
aI-10
aI61
aI-88
aI-40
aI64
aI32
aI92
aI-44
aI65
aI82
aI-45
aI37
aI22
aI-50
aI-97
aI93
aI-96
aI83
aI-63
aI100
aI-49
aI-44
aI-86
aI-6
aI94
aI-62
aI-43
aI-11
aI12
aI-2
aI31
aI29
aI-77
aI58
aI11
aI37
aI-48
aI71
aI12
aI-96
aI-27
aI31
aI-48
aI43
aI-81
aI22
aI77
aI62
aI25
aI10
aI62
aI-23
aI1
aI80
aI17
aI-75
aI35
aI2
aI35
aI43
aI-79
aI86
aI62
aI7
aI17
aI-53
aI9
aI-80
aI95
aI-31
aI-62
aI36
aI-8
aI73
aI-78
aI24
aI-74
aI-82
aI-75
aa(lp38
I70
aI61
aI-27
aI80
aI29
aI94
aI24
aI-20
aI2
aI18
aI78
aI-58
aI-5
aI-76
aI-54
aI20
aI-34
aI-46
aI-53
aI66
aI-29
aI-93
aI-37
aI-19
aI58
aI-86
aI63
aI27
aI-52
aI94
aI-72
aI-51
aI95
aI59
aI49
aI45
aI-49
aI16
aI-59
aI-12
aI95
aI72
aI-1
aI-4
aI30
aI-74
aI81
aI61
aI52
aI22
aI-94
aI-38
aI-65
aI-82
aI-50
aI72
aI83
aI41
aI7
aI54
aI69
aI-92
aI22
aI-3
aI59
aI76
aI-22
aI26
aI55
aI1
aI-20
aI-1
aI5
aI-16
aI-36
aI31
aI12
aI-84
aI-33
aI-35
aI90
aI100
aI-25
aI37
aI-91
aI-68
aI-39
aI-46
aI73
aI-57
aI-6
aI34
aI-59
aI59
aI-3
aI73
aI-8
aI89
aI-76
aI-75
aa(lp39
I74
aI-50
aI-60
aI100
aI-95
aI81
aI90
aI-86
aI-10
aI21
aI-1
aI70
aI-38
aI-63
aI-56
aI48
aI59
aI-71
aI43
aI-33
aI57
aI-60
aI-80
aI-4
aI51
aI-53
aI57
aI-37
aI-18
aI92
aI-83
aI-73
aI70
aI4
aI98
aI-62
aI31
aI81
aI61
aI-49
aI-94
aI-77
aI-63
aI-11
aI-30
aI-84
aI7
aI11
aI-95
aI-79
aI-52
aI-78
aI1
aI56
aI-52
aI-50
aI-51
aI-30
aI-25
aI-20
aI49
aI50
aI-59
aI-70
aI94
aI70
aI-5
aI-96
aI78
aI4
aI-2
aI-8
aI-32
aI76
aI-5
aI41
aI10
aI-15
aI-12
aI57
aI-73
aI-12
aI9
aI-97
aI64
aI30
aI-14
aI-85
aI94
aI-3
aI50
aI-80
aI1
aI-40
aI-93
aI77
aI53
aI-11
aI97
aI82
aa(lp40
I-62
aI61
aI-89
aI80
aI63
aI-51
aI-74
aI-18
aI27
aI-4
aI23
aI79
aI93
aI-23
aI-3
aI70
aI-26
aI37
aI-82
aI-10
aI77
aI-45
aI-67
aI-43
aI-70
aI-53
aI-83
aI32
aI-88
aI48
aI18
aI-25
aI49
aI-34
aI-69
aI0
aI67
aI-55
aI11
aI45
aI48
aI-67
aI47
aI-95
aI-65
aI-40
aI45
aI96
aI-63
aI38
aI24
aI94
aI76
aI-88
aI-97
aI50
aI98
aI-98
aI-37
aI4
aI12
aI-13
aI52
aI63
aI53
aI-76
aI31
aI-40
aI-74
aI-100
aI-25
aI63
aI3
aI27
aI-84
aI55
aI90
aI-22
aI24
aI-59
aI-29
aI65
aI8
aI-26
aI43
aI57
aI-26
aI-27
aI86
aI55
aI77
aI-82
aI21
aI18
aI47
aI30
aI-2
aI79
aI-64
aI-27
aa(lp41
I-87
aI28
aI81
aI64
aI99
aI-12
aI-17
aI-26
aI-77
aI33
aI-23
aI63
aI-52
aI-6
aI-16
aI-75
aI9
aI-42
aI-42
aI2
aI-58
aI34
aI-100
aI-96
aI33
aI55
aI9
aI-9
aI-64
aI57
aI32
aI62
aI96
aI-40
aI-49
aI79
aI6
aI4
aI44
aI49
aI-97
aI3
aI21
aI80
aI8
aI-45
aI27
aI8
aI-80
aI-97
aI-41
aI36
aI-6
aI4
aI-74
aI-61
aI46
aI17
aI71
aI-66
aI72
aI57
aI-30
aI-28
aI92
aI-45
aI-87
aI-24
aI-17
aI-65
aI7
aI96
aI86
aI85
aI57
aI-30
aI-62
aI13
aI-62
aI9
aI57
aI24
aI-24
aI29
aI-38
aI-75
aI-31
aI-67
aI33
aI5
aI48
aI16
aI-61
aI-69
aI-43
aI37
aI-51
aI58
aI16
aI-90
aa(lp42
I55
aI71
aI-3
aI-51
aI19
aI14
aI21
aI-57
aI27
aI-86
aI-96
aI27
aI85
aI-26
aI54
aI27
aI4
aI-46
aI37
aI-39
aI6
aI-61
aI-1
aI52
aI3
aI97
aI83
aI-86
aI83
aI10
aI-99
aI57
aI87
aI-50
aI44
aI-52
aI-69
aI-52
aI69
aI47
aI-63
aI40
aI38
aI30
aI22
aI46
aI84
aI74
aI72
aI-21
aI21
aI52
aI-81
aI-78
aI-88
aI73
aI-93
aI76
aI24
aI-95
aI2
aI64
aI35
aI-82
aI-44
aI-48
aI46
aI-90
aI33
aI12
aI44
aI86
aI-39
aI52
aI-93
aI3
aI27
aI-17
aI83
aI-46
aI-51
aI-69
aI-87
aI-14
aI71
aI2
aI15
aI-25
aI-87
aI-50
aI-96
aI98
aI-23
aI-52
aI-59
aI-47
aI-11
aI29
aI42
aI-79
aa(lp43
I58
aI-62
aI56
aI37
aI-93
aI-75
aI-83
aI86
aI57
aI-93
aI9
aI19
aI11
aI29
aI-86
aI-8
aI17
aI-44
aI-42
aI-87
aI-13
aI93
aI1
aI-9
aI-30
aI27
aI-25
aI-71
aI-59
aI-93
aI-67
aI-34
aI-1
aI41
aI-74
aI92
aI-42
aI76
aI67
aI-27
aI75
aI-93
aI43
aI62
aI-18
aI-24
aI-18
aI83
aI-82
aI-8
aI-97
aI79
aI29
aI2
aI85
aI4
aI-10
aI4
aI43
aI27
aI-39
aI-44
aI31
aI-22
aI-4
aI-72
aI99
aI-87
aI54
aI20
aI31
aI-65
aI67
aI95
aI-87
aI19
aI-65
aI-68
aI-37
aI26
aI-11
aI70
aI32
aI-76
aI-53
aI-54
aI70
aI90
aI42
aI40
aI14
aI-65
aI-32
aI0
aI4
aI63
aI-57
aI99
aI37
aI-55
aa(lp44
I-34
aI63
aI24
aI-34
aI-59
aI5
aI-76
aI67
aI-10
aI96
aI14
aI55
aI47
aI-43
aI54
aI-36
aI-46
aI83
aI47
aI-66
aI41
aI-73
aI60
aI-33
aI83
aI79
aI-69
aI50
aI-47
aI-69
aI-95
aI-43
aI73
aI32
aI-93
aI65
aI30
aI-26
aI-97
aI88
aI-44
aI-64
aI89
aI-8
aI-30
aI-71
aI-33
aI49
aI-98
aI-11
aI32
aI82
aI13
aI43
aI-59
aI-27
aI-27
aI89
aI-54
aI84
aI-96
aI82
aI6
aI-2
aI-58
aI27
aI-96
aI52
aI86
aI-27
aI85
aI69
aI-17
aI85
aI-49
aI-39
aI-37
aI2
aI31
aI-93
aI48
aI15
aI16
aI-93
aI37
aI-37
aI68
aI3
aI91
aI90
aI-31
aI-74
aI-46
aI-87
aI9
aI81
aI-72
aI61
aI-55
aI83
aa(lp45
I-94
aI28
aI-77
aI45
aI-90
aI36
aI25
aI-71
aI4
aI-98
aI-13
aI-58
aI1
aI-57
aI-63
aI-86
aI-42
aI95
aI-68
aI97
aI-40
aI-79
aI28
aI-95
aI26
aI-69
aI99
aI-24
aI18
aI-97
aI-85
aI-99
aI-79
aI-26
aI-28
aI-10
aI-70
aI-2
aI-36
aI-55
aI-54
aI69
aI85
aI18
aI-83
aI40
aI12
aI47
aI-87
aI8
aI-96
aI-56
aI10
aI-81
aI68
aI53
aI4
aI23
aI17
aI93
aI62
aI9
aI-10
aI87
aI-2
aI71
aI22
aI-25
aI5
aI-92
aI67
aI-63
aI-90
aI60
aI-71
aI-30
aI1
aI-78
aI-14
aI-63
aI-62
aI77
aI-39
aI-91
aI73
aI48
aI-40
aI-91
aI10
aI63
aI-15
aI-23
aI16
aI-21
aI24
aI88
aI33
aI-16
aI66
aI-72
aa(lp46
I60
aI-15
aI-79
aI-36
aI30
aI89
aI53
aI-39
aI49
aI-14
aI74
aI53
aI-23
aI65
aI-24
aI-14
aI-31
aI-50
aI-36
aI61
aI-14
aI-92
aI-41
aI-99
aI12
aI-30
aI-4
aI-17
aI23
aI-5
aI-33
aI-81
aI42
aI-21
aI56
aI34
aI22
aI-78
aI70
aI-82
aI25
aI-64
aI34
aI-83
aI84
aI69
aI-3
aI29
aI-43
aI-76
aI-57
aI-94
aI12
aI-17
aI80
aI-5
aI97
aI51
aI-8
aI-3
aI96
aI-17
aI-24
aI-93
aI-81
aI-67
aI-75
aI-43
aI55
aI-20
aI-94
aI-63
aI-39
aI4
aI-31
aI-62
aI-41
aI-43
aI12
aI71
aI17
aI-10
aI-27
aI-55
aI-62
aI76
aI65
aI4
aI29
aI39
aI-94
aI54
aI-28
aI-22
aI-40
aI-4
aI-23
aI-67
aI-2
aI5
aa(lp47
I11
aI10
aI-13
aI99
aI78
aI-53
aI-38
aI0
aI-92
aI-25
aI-26
aI-24
aI-79
aI72
aI-26
aI-13
aI58
aI46
aI-37
aI-70
aI-54
aI37
aI38
aI55
aI-92
aI52
aI-96
aI7
aI-90
aI37
aI-67
aI66
aI-24
aI76
aI-6
aI21
aI97
aI1
aI1
aI22
aI-22
aI5
aI-94
aI-36
aI-56
aI58
aI100
aI-44
aI-90
aI-54
aI33
aI-36
aI-25
aI-20
aI-22
aI49
aI7
aI89
aI58
aI-83
aI72
aI-58
aI-76
aI22
aI91
aI-27
aI67
aI-77
aI15
aI-2
aI-38
aI-85
aI50
aI95
aI14
aI-30
aI-2
aI80
aI86
aI-67
aI13
aI-36
aI-20
aI-13
aI50
aI12
aI-36
aI33
aI-17
aI8
aI-85
aI8
aI31
aI83
aI-23
aI-97
aI17
aI-60
aI57
aI-16
aa(lp48
I-80
aI-55
aI91
aI-48
aI-89
aI-89
aI59
aI49
aI-11
aI90
aI-41
aI-67
aI-86
aI-54
aI74
aI-79
aI-76
aI-6
aI17
aI44
aI34
aI-23
aI-3
aI23
aI32
aI38
aI40
aI-93
aI-61
aI91
aI22
aI56
aI50
aI-99
aI-85
aI27
aI89
aI61
aI-67
aI19
aI-79
aI-12
aI89
aI-5
aI1
aI-28
aI12
aI-50
aI-78
aI-79
aI78
aI42
aI52
aI72
aI45
aI31
aI-30
aI-74
aI39
aI-71
aI-90
aI24
aI-3
aI0
aI41
aI-21
aI2
aI19
aI98
aI96
aI29
aI30
aI23
aI-59
aI-36
aI-4
aI86
aI-65
aI-95
aI-4
aI-38
aI-47
aI-11
aI10
aI27
aI65
aI34
aI60
aI-33
aI-30
aI-14
aI18
aI24
aI-62
aI83
aI44
aI10
aI98
aI-79
aI35
aa(lp49
I25
aI-98
aI14
aI-73
aI-59
aI-39
aI-63
aI-75
aI-49
aI-53
aI-53
aI70
aI-42
aI61
aI-20
aI97
aI46
aI34
aI54
aI-14
aI0
aI-56
aI80
aI-35
aI-12
aI-89
aI-56
aI20
aI-72
aI-53
aI-19
aI17
aI48
aI48
aI-72
aI-18
aI-43
aI93
aI-88
aI-57
aI68
aI-33
aI-44
aI78
aI-22
aI56
aI-24
aI18
aI79
aI-50
aI12
aI-31
aI92
aI52
aI-68
aI53
aI53
aI44
aI94
aI-77
aI16
aI-57
aI-38
aI-83
aI55
aI77
aI6
aI79
aI-18
aI54
aI61
aI36
aI-30
aI-4
aI-35
aI5
aI26
aI-98
aI-21
aI-16
aI-24
aI81
aI-1
aI31
aI-93
aI-33
aI43
aI30
aI83
aI1
aI69
aI-61
aI-11
aI55
aI-66
aI34
aI32
aI27
aI92
aI-87
aa(lp50
I-70
aI62
aI15
aI49
aI99
aI-58
aI-78
aI-36
aI-80
aI70
aI-9
aI24
aI52
aI75
aI-45
aI-10
aI13
aI54
aI80
aI56
aI-31
aI11
aI-1
aI78
aI97
aI-88
aI-16
aI78
aI-96
aI33
aI-57
aI-92
aI71
aI61
aI-74
aI99
aI53
aI-26
aI34
aI92
aI8
aI-21
aI43
aI54
aI95
aI65
aI-18
aI-57
aI94
aI-92
aI-38
aI94
aI-69
aI-46
aI73
aI-5
aI-92
aI-23
aI-83
aI-82
aI98
aI-59
aI-49
aI-47
aI71
aI100
aI61
aI14
aI-9
aI-36
aI-49
aI-100
aI-2
aI-64
aI62
aI42
aI68
aI21
aI38
aI6
aI-60
aI-32
aI57
aI-79
aI30
aI100
aI-64
aI92
aI76
aI-72
aI89
aI-68
aI-52
aI-70
aI66
aI-36
aI-29
aI-99
aI-56
aI63
aa(lp51
I-72
aI-16
aI-13
aI-62
aI79
aI5
aI94
aI88
aI-82
aI-36
aI-57
aI4
aI38
aI-81
aI42
aI-62
aI23
aI-31
aI88
aI-6
aI-55
aI-15
aI55
aI-74
aI-36
aI86
aI52
aI19
aI87
aI32
aI97
aI-37
aI-70
aI-98
aI-64
aI68
aI60
aI68
aI-53
aI-84
aI55
aI1
aI-9
aI31
aI-27
aI-15
aI22
aI-81
aI58
aI67
aI37
aI-16
aI-40
aI-93
aI-6
aI4
aI-67
aI64
aI88
aI-38
aI57
aI62
aI-52
aI-18
aI-15
aI-82
aI68
aI-66
aI-43
aI83
aI74
aI-45
aI81
aI-55
aI-90
aI33
aI1
aI-46
aI2
aI70
aI93
aI84
aI-46
aI80
aI39
aI-31
aI73
aI-38
aI11
aI-2
aI32
aI15
aI69
aI2
aI33
aI86
aI-67
aI-99
aI89
aI-9
aa(lp52
I-32
aI89
aI-56
aI-28
aI-94
aI93
aI-73
aI66
aI48
aI94
aI-50
aI-51
aI-29
aI-77
aI26
aI-82
aI5
aI12
aI-40
aI-36
aI-29
aI-13
aI89
aI57
aI-64
aI21
aI-56
aI45
aI-85
aI-79
aI49
aI-90
aI19
aI-8
aI-32
aI27
aI6
aI-98
aI90
aI15
aI99
aI-72
aI93
aI55
aI85
aI-77
aI37
aI27
aI-93
aI23
aI8
aI8
aI41
aI32
aI65
aI-11
aI21
aI-95
aI-29
aI-20
aI95
aI64
aI45
aI6
aI-50
aI12
aI-55
aI97
aI33
aI46
aI-29
aI60
aI78
aI65
aI-95
aI37
aI12
aI-62
aI21
aI-68
aI-80
aI-62
aI-46
aI97
aI-74
aI75
aI14
aI-22
aI1
aI-73
aI89
aI40
aI-88
aI59
aI-72
aI-95
aI-100
aI21
aI-94
aI28
aa(lp53
I69
aI-64
aI83
aI-71
aI49
aI-37
aI-15
aI10
aI77
aI-83
aI-92
aI51
aI-86
aI-99
aI63
aI33
aI-25
aI-99
aI55
aI-67
aI-18
aI-9
aI-43
aI52
aI-9
aI7
aI16
aI53
aI3
aI-96
aI-79
aI-63
aI13
aI45
aI-56
aI36
aI-4
aI44
aI-83
aI54
aI-94
aI96
aI-5
aI-94
aI-94
aI32
aI26
aI51
aI-37
aI44
aI35
aI39
aI96
aI-35
aI16
aI-27
aI-29
aI-55
aI36
aI-61
aI-18
aI74
aI33
aI-86
aI4
aI-55
aI27
aI-76
aI-28
aI55
aI-71
aI-29
aI40
aI78
aI66
aI87
aI-58
aI-19
aI89
aI-82
aI67
aI-27
aI-43
aI98
aI-13
aI-55
aI-69
aI-35
aI10
aI-89
aI67
aI75
aI-53
aI-5
aI1
aI64
aI84
aI99
aI-49
aI56
aa(lp54
I-73
aI-63
aI94
aI-1
aI41
aI-97
aI-87
aI42
aI39
aI-18
aI-57
aI76
aI-81
aI71
aI-43
aI-73
aI48
aI18
aI98
aI88
aI23
aI-43
aI-41
aI52
aI28
aI-64
aI4
aI-60
aI-51
aI-85
aI-1
aI-66
aI98
aI-57
aI-29
aI71
aI77
aI14
aI-22
aI23
aI-12
aI-84
aI-82
aI0
aI-4
aI-98
aI25
aI96
aI-16
aI-44
aI-55
aI-30
aI95
aI69
aI-49
aI-90
aI-36
aI32
aI63
aI-35
aI-18
aI-81
aI-61
aI69
aI66
aI65
aI60
aI-98
aI-49
aI-70
aI31
aI49
aI55
aI7
aI31
aI-4
aI-16
aI-31
aI99
aI63
aI-70
aI-48
aI75
aI-48
aI-60
aI-92
aI-12
aI-8
aI13
aI-2
aI68
aI1
aI2
aI1
aI43
aI50
aI41
aI-4
aI48
aI-35
aa(lp55
I75
aI42
aI81
aI4
aI-23
aI25
aI-7
aI94
aI33
aI-97
aI-14
aI90
aI81
aI84
aI78
aI-14
aI34
aI52
aI-32
aI73
aI-26
aI53
aI-7
aI12
aI-38
aI-25
aI-25
aI-19
aI7
aI-35
aI-29
aI-7
aI-36
aI-18
aI38
aI43
aI-40
aI-13
aI60
aI-49
aI-36
aI93
aI34
aI10
aI81
aI47
aI30
aI-71
aI-63
aI62
aI-83
aI49
aI-61
aI8
aI-93
aI91
aI76
aI-93
aI-49
aI-67
aI-93
aI93
aI87
aI62
aI-12
aI-79
aI42
aI-98
aI81
aI5
aI-42
aI77
aI-70
aI-41
aI-95
aI28
aI45
aI-56
aI-15
aI-63
aI49
aI69
aI63
aI-27
aI67
aI-52
aI24
aI88
aI69
aI-26
aI100
aI-82
aI82
aI79
aI-73
aI-38
aI-77
aI16
aI73
aI-92
aa(lp56
I17
aI73
aI56
aI-48
aI-6
aI-29
aI43
aI-67
aI73
aI-65
aI-61
aI-50
aI-84
aI-14
aI-61
aI-26
aI92
aI-35
aI-65
aI-18
aI71
aI17
aI-15
aI-68
aI10
aI-42
aI32
aI61
aI-70
aI-88
aI-63
aI-64
aI-88
aI30
aI6
aI-73
aI-93
aI-98
aI-4
aI39
aI11
aI-7
aI75
aI54
aI72
aI30
aI-33
aI55
aI42
aI-75
aI-98
aI-85
aI14
aI24
aI-30
aI-14
aI46
aI-40
aI72
aI32
aI0
aI2
aI0
aI-33
aI-89
aI10
aI38
aI2
aI88
aI76
aI-14
aI69
aI-81
aI-62
aI33
aI33
aI94
aI84
aI-97
aI-57
aI-34
aI74
aI87
aI-96
aI7
aI-19
aI-94
aI89
aI-6
aI-43
aI-28
aI-5
aI-92
aI35
aI-33
aI-4
aI-76
aI-29
aI-93
aI32
aa(lp57
I-2
aI96
aI-10
aI-100
aI-20
aI91
aI40
aI9
aI9
aI-42
aI72
aI46
aI85
aI30
aI78
aI-18
aI-51
aI59
aI-23
aI-72
aI-37
aI13
aI-75
aI-95
aI5
aI-26
aI-98
aI-64
aI57
aI-36
aI-61
aI-7
aI64
aI-16
aI-70
aI-22
aI-39
aI15
aI15
aI-28
aI-18
aI75
aI51
aI82
aI77
aI-49
aI70
aI-98
aI22
aI-76
aI80
aI68
aI-49
aI-80
aI-22
aI12
aI60
aI-8
aI51
aI33
aI-44
aI-33
aI-42
aI-27
aI23
aI-36
aI-37
aI62
aI-12
aI25
aI85
aI10
aI-96
aI-81
aI-22
aI83
aI-87
aI89
aI90
aI-44
aI-56
aI88
aI59
aI93
aI-10
aI-36
aI-36
aI95
aI-69
aI-73
aI24
aI-57
aI2
aI95
aI-4
aI95
aI-84
aI-32
aI69
aI4
aa(lp58
I-69
aI18
aI96
aI54
aI-51
aI39
aI-88
aI-24
aI-85
aI-31
aI-24
aI71
aI-12
aI83
aI48
aI-21
aI-92
aI86
aI26
aI54
aI100
aI41
aI86
aI28
aI-93
aI-38
aI80
aI-31
aI-22
aI-28
aI-64
aI-36
aI-37
aI-73
aI-24
aI-40
aI-26
aI-10
aI-57
aI-73
aI-16
aI-70
aI-69
aI78
aI6
aI-72
aI95
aI-35
aI-66
aI61
aI-90
aI-4
aI63
aI-21
aI10
aI-84
aI85
aI-3
aI-47
aI-3
aI58
aI-38
aI78
aI-71
aI99
aI-92
aI-100
aI29
aI-40
aI-79
aI-98
aI-6
aI55
aI58
aI-58
aI-35
aI-79
aI57
aI-8
aI-63
aI21
aI71
aI78
aI78
aI55
aI-13
aI58
aI76
aI59
aI-92
aI-14
aI32
aI87
aI-18
aI67
aI-96
aI-36
aI-66
aI-15
aI-45
aa(lp59
I64
aI64
aI38
aI-20
aI-75
aI-75
aI36
aI35
aI-100
aI36
aI-100
aI58
aI-2
aI-16
aI59
aI-68
aI75
aI7
aI-48
aI77
aI-76
aI-39
aI86
aI-78
aI2
aI-19
aI-2
aI46
aI-84
aI-17
aI-9
aI20
aI-54
aI-13
aI23
aI64
aI26
aI-56
aI-35
aI-2
aI12
aI18
aI-5
aI85
aI-21
aI-22
aI60
aI89
aI96
aI-38
aI-42
aI46
aI100
aI79
aI66
aI-50
aI-10
aI49
aI-67
aI-64
aI-22
aI71
aI-34
aI-55
aI-73
aI37
aI-9
aI-13
aI-78
aI88
aI79
aI-42
aI70
aI81
aI-57
aI-23
aI-88
aI-82
aI-73
aI3
aI-74
aI2
aI86
aI2
aI-71
aI40
aI-23
aI60
aI0
aI41
aI18
aI90
aI-35
aI-8
aI41
aI81
aI-48
aI73
aI-35
aI31
aa(lp60
I-94
aI-44
aI87
aI-57
aI88
aI-47
aI29
aI52
aI-94
aI-4
aI35
aI-54
aI-8
aI-48
aI54
aI-11
aI-87
aI-86
aI57
aI45
aI-83
aI-13
aI37
aI-73
aI-39
aI6
aI-70
aI78
aI64
aI83
aI-18
aI-78
aI29
aI-64
aI-46
aI59
aI-78
aI-50
aI-43
aI-50
aI29
aI59
aI-98
aI-84
aI-50
aI81
aI16
aI-70
aI13
aI83
aI-75
aI97
aI-17
aI3
aI-81
aI65
aI33
aI53
aI78
aI85
aI74
aI18
aI-68
aI48
aI83
aI-63
aI-98
aI-88
aI-79
aI-16
aI-61
aI31
aI-47
aI-20
aI5
aI-17
aI-82
aI-88
aI42
aI35
aI-28
aI-34
aI-30
aI21
aI-16
aI-34
aI-20
aI92
aI-45
aI18
aI86
aI-42
aI98
aI-91
aI-59
aI0
aI-7
aI-73
aI0
aI15
aa(lp61
I-29
aI100
aI29
aI-78
aI78
aI-31
aI-23
aI60
aI5
aI-100
aI-88
aI-36
aI-5
aI-4
aI41
aI48
aI-89
aI-47
aI-47
aI53
aI-43
aI-14
aI-49
aI90
aI-49
aI84
aI19
aI45
aI-10
aI-29
aI-10
aI14
aI-88
aI-18
aI-16
aI-88
aI50
aI-54
aI-25
aI12
aI81
aI87
aI-17
aI-5
aI27
aI48
aI-88
aI-43
aI70
aI45
aI73
aI4
aI82
aI59
aI49
aI-45
aI42
aI-5
aI-98
aI-1
aI80
aI16
aI-9
aI-63
aI82
aI2
aI17
aI74
aI-66
aI-36
aI57
aI-10
aI9
aI57
aI0
aI-76
aI98
aI-86
aI40
aI-39
aI-25
aI-34
aI-81
aI-40
aI20
aI-38
aI-86
aI-92
aI-65
aI16
aI77
aI63
aI-62
aI17
aI8
aI96
aI64
aI59
aI-75
aI98
aa(lp62
I87
aI26
aI76
aI67
aI93
aI11
aI6
aI36
aI6
aI81
aI-75
aI41
aI-48
aI51
aI-18
aI29
aI-29
aI95
aI-62
aI-95
aI4
aI10
aI10
aI-94
aI47
aI2
aI-89
aI100
aI51
aI48
aI21
aI-56
aI-33
aI78
aI-17
aI67
aI-68
aI17
aI-37
aI-52
aI79
aI92
aI-68
aI3
aI21
aI-52
aI-70
aI69
aI26
aI100
aI93
aI67
aI3
aI98
aI94
aI-32
aI85
aI45
aI-74
aI-97
aI-99
aI96
aI-82
aI-7
aI-2
aI80
aI24
aI-3
aI60
aI9
aI12
aI92
aI41
aI77
aI54
aI73
aI-82
aI67
aI-35
aI84
aI33
aI49
aI-20
aI-95
aI14
aI-76
aI-37
aI-81
aI48
aI72
aI-30
aI3
aI52
aI-74
aI76
aI93
aI-59
aI93
aI59
aI-42
aa(lp63
I-76
aI-66
aI89
aI86
aI85
aI64
aI65
aI-26
aI49
aI26
aI-93
aI-90
aI49
aI-96
aI-21
aI-85
aI-16
aI1
aI47
aI12
aI-40
aI47
aI89
aI13
aI57
aI-37
aI-36
aI-25
aI10
aI-38
aI5
aI70
aI-27
aI94
aI-45
aI51
aI2
aI46
aI68
aI86
aI-40
aI-10
aI65
aI47
aI99
aI-54
aI-86
aI90
aI48
aI83
aI66
aI35
aI93
aI-16
aI-8
aI21
aI48
aI-87
aI-66
aI-38
aI-69
aI-30
aI42
aI12
aI72
aI-98
aI9
aI-51
aI16
aI-71
aI-89
aI-45
aI70
aI-81
aI-91
aI-100
aI47
aI-82
aI-56
aI-74
aI-25
aI59
aI22
aI-96
aI60
aI17
aI-63
aI-65
aI-73
aI-67
aI-92
aI47
aI-25
aI-43
aI-100
aI-6
aI78
aI56
aI-17
aI81
aa(lp64
I-98
aI27
aI-96
aI56
aI35
aI-11
aI50
aI39
aI31
aI3
aI61
aI-2
aI-23
aI1
aI95
aI-41
aI-24
aI27
aI64
aI47
aI40
aI48
aI-25
aI62
aI-31
aI92
aI-42
aI20
aI16
aI-60
aI-57
aI-25
aI7
aI-34
aI27
aI-5
aI-95
aI-63
aI-76
aI24
aI54
aI27
aI-100
aI99
aI84
aI37
aI22
aI31
aI-22
aI49
aI-66
aI67
aI43
aI26
aI76
aI80
aI-34
aI79
aI-55
aI-21
aI-68
aI90
aI71
aI-75
aI69
aI55
aI32
aI-86
aI90
aI-49
aI63
aI90
aI80
aI-23
aI-30
aI53
aI-70
aI-76
aI42
aI-82
aI12
aI-81
aI56
aI44
aI76
aI86
aI-8
aI61
aI25
aI-31
aI73
aI-95
aI11
aI-48
aI-20
aI23
aI-70
aI7
aI-9
aI-47
aa(lp65
I48
aI-83
aI9
aI-41
aI73
aI38
aI46
aI8
aI-71
aI-1
aI85
aI70
aI-2
aI17
aI-100
aI99
aI82
aI-21
aI76
aI5
aI-96
aI-5
aI74
aI-12
aI96
aI38
aI21
aI-52
aI13
aI64
aI89
aI-16
aI-74
aI34
aI-90
aI-67
aI74
aI-95
aI80
aI52
aI-12
aI-53
aI-12
aI-34
aI-86
aI-35
aI7
aI-64
aI89
aI56
aI80
aI-98
aI-84
aI-88
aI90
aI-80
aI-21
aI-35
aI84
aI75
aI-81
aI-8
aI-29
aI-63
aI-97
aI-55
aI46
aI1
aI6
aI43
aI43
aI45
aI75
aI-27
aI36
aI12
aI-33
aI-10
aI71
aI82
aI-60
aI-69
aI80
aI94
aI-97
aI-35
aI42
aI0
aI40
aI-64
aI-37
aI2
aI-36
aI46
aI87
aI70
aI76
aI84
aI0
aI-55
aa(lp66
I-32
aI-8
aI-23
aI91
aI46
aI45
aI-70
aI2
aI-56
aI39
aI-95
aI31
aI13
aI25
aI-7
aI15
aI-46
aI74
aI88
aI-66
aI-82
aI-87
aI-94
aI-40
aI-78
aI-76
aI73
aI7
aI76
aI55
aI-3
aI12
aI-70
aI-12
aI-25
aI-30
aI-94
aI-69
aI92
aI-98
aI-1
aI-83
aI-13
aI87
aI61
aI3
aI-88
aI-83
aI-60
aI69
aI97
aI-6
aI-43
aI-92
aI-63
aI-33
aI85
aI-52
aI-71
aI-42
aI72
aI86
aI-21
aI-65
aI-8
aI-22
aI-48
aI-62
aI-42
aI28
aI12
aI-4
aI45
aI81
aI58
aI-48
aI60
aI-49
aI18
aI22
aI-81
aI-53
aI-27
aI39
aI38
aI-69
aI-29
aI43
aI-56
aI-20
aI-19
aI-99
aI-87
aI92
aI22
aI-30
aI25
aI-50
aI73
aI-95
aa(lp67
I51
aI59
aI16
aI-61
aI-82
aI67
aI17
aI52
aI49
aI65
aI21
aI-40
aI-22
aI-81
aI47
aI-7
aI28
aI-81
aI-68
aI-31
aI-92
aI-33
aI-2
aI-36
aI-17
aI-71
aI-28
aI-69
aI-39
aI95
aI-88
aI48
aI10
aI-17
aI93
aI-69
aI49
aI79
aI-20
aI2
aI55
aI1
aI68
aI-90
aI49
aI-77
aI-19
aI-92
aI-44
aI-23
aI93
aI-87
aI-13
aI-46
aI19
aI61
aI72
aI94
aI-98
aI92
aI-99
aI-35
aI-83
aI-51
aI-75
aI15
aI-68
aI45
aI69
aI25
aI-32
aI73
aI-71
aI-44
aI-55
aI66
aI-80
aI-9
aI-7
aI-6
aI-28
aI-80
aI-95
aI-69
aI-36
aI71
aI38
aI-1
aI45
aI32
aI55
aI-46
aI3
aI-98
aI44
aI-32
aI-40
aI-72
aI-91
aI99
aa(lp68
I-5
aI14
aI28
aI73
aI1
aI-30
aI58
aI-38
aI61
aI-50
aI-87
aI-58
aI-61
aI52
aI-12
aI-4
aI18
aI83
aI12
aI44
aI-41
aI75
aI-64
aI-69
aI70
aI66
aI39
aI-27
aI-71
aI49
aI-29
aI-37
aI8
aI58
aI-20
aI68
aI67
aI-3
aI64
aI96
aI68
aI-67
aI42
aI32
aI49
aI63
aI-40
aI84
aI2
aI23
aI-38
aI-84
aI94
aI-45
aI-55
aI96
aI-91
aI42
aI50
aI47
aI22
aI-13
aI-3
aI47
aI23
aI41
aI-32
aI-51
aI82
aI10
aI46
aI-64
aI-26
aI-45
aI86
aI36
aI-48
aI11
aI38
aI-79
aI85
aI-28
aI5
aI85
aI10
aI59
aI0
aI-13
aI-64
aI-40
aI-38
aI32
aI-14
aI-9
aI-85
aI56
aI-16
aI-40
aI-25
aI-8
aa(lp69
I64
aI-98
aI-44
aI3
aI-97
aI40
aI99
aI51
aI-68
aI89
aI92
aI17
aI-5
aI-72
aI-96
aI-95
aI24
aI83
aI91
aI3
aI41
aI-86
aI-91
aI-81
aI-21
aI-17
aI48
aI-96
aI19
aI100
aI60
aI-36
aI86
aI-37
aI91
aI-80
aI35
aI-71
aI-81
aI-29
aI71
aI63
aI-34
aI51
aI-42
aI84
aI-100
aI-56
aI-36
aI10
aI-88
aI-29
aI-91
aI-66
aI-44
aI-17
aI44
aI-35
aI-83
aI5
aI51
aI82
aI-47
aI-93
aI6
aI24
aI-35
aI65
aI-20
aI-16
aI-91
aI57
aI-21
aI5
aI71
aI-92
aI14
aI59
aI36
aI-67
aI3
aI-2
aI-58
aI30
aI-92
aI-72
aI-37
aI94
aI90
aI-41
aI-66
aI-70
aI85
aI34
aI25
aI31
aI-13
aI36
aI-42
aI-6
aa(lp70
I-21
aI52
aI-71
aI82
aI93
aI67
aI26
aI-93
aI2
aI77
aI46
aI59
aI48
aI16
aI77
aI86
aI56
aI14
aI98
aI-79
aI-76
aI-47
aI-65
aI-29
aI-41
aI95
aI-5
aI-4
aI39
aI-26
aI82
aI55
aI-14
aI-27
aI70
aI1
aI-65
aI20
aI29
aI10
aI-7
aI-82
aI-68
aI97
aI-65
aI-62
aI-27
aI98
aI-50
aI46
aI47
aI-23
aI99
aI50
aI-28
aI-31
aI66
aI27
aI7
aI69
aI-40
aI-64
aI45
aI1
aI-8
aI-72
aI26
aI-79
aI40
aI-88
aI41
aI-72
aI21
aI-45
aI-67
aI55
aI87
aI49
aI-35
aI-51
aI-65
aI32
aI49
aI37
aI97
aI12
aI-55
aI-41
aI10
aI-29
aI11
aI-80
aI-80
aI-60
aI-29
aI-77
aI-19
aI-10
aI0
aI-31
aa(lp71
I-75
aI-47
aI36
aI-35
aI65
aI54
aI-47
aI15
aI33
aI95
aI0
aI-89
aI-51
aI3
aI-70
aI-50
aI-7
aI-48
aI-22
aI-2
aI95
aI74
aI-17
aI-44
aI59
aI-8
aI24
aI-38
aI56
aI-56
aI75
aI21
aI93
aI52
aI-44
aI100
aI-51
aI-3
aI-52
aI62
aI20
aI-76
aI81
aI90
aI84
aI23
aI3
aI-75
aI-64
aI-10
aI-28
aI-65
aI-74
aI-62
aI82
aI-49
aI-49
aI69
aI-23
aI-89
aI-99
aI-92
aI-7
aI28
aI-75
aI-25
aI-91
aI80
aI-20
aI82
aI74
aI-80
aI-61
aI-89
aI-56
aI-64
aI-23
aI63
aI90
aI28
aI-26
aI99
aI-91
aI45
aI-70
aI89
aI12
aI37
aI54
aI-25
aI23
aI95
aI-94
aI61
aI18
aI-78
aI-15
aI-60
aI51
aI77
aa(lp72
I3
aI-14
aI97
aI60
aI-96
aI-17
aI47
aI6
aI30
aI40
aI36
aI24
aI-93
aI-49
aI67
aI72
aI-38
aI52
aI20
aI79
aI62
aI-69
aI-56
aI-90
aI-96
aI-97
aI60
aI20
aI88
aI10
aI5
aI51
aI62
aI43
aI68
aI75
aI-80
aI-50
aI-96
aI3
aI-46
aI19
aI-16
aI-4
aI-91
aI0
aI87
aI76
aI96
aI-76
aI63
aI54
aI4
aI73
aI16
aI35
aI-93
aI89
aI-6
aI6
aI-98
aI44
aI-77
aI62
aI-6
aI43
aI20
aI64
aI3
aI73
aI35
aI0
aI-99
aI94
aI-23
aI-85
aI49
aI92
aI77
aI-11
aI40
aI60
aI-8
aI1
aI-25
aI8
aI-29
aI10
aI-96
aI75
aI-90
aI-76
aI-4
aI59
aI-59
aI-70
aI-99
aI-9
aI74
aI87
aa(lp73
I57
aI-35
aI-35
aI-1
aI-66
aI87
aI-26
aI47
aI-67
aI86
aI99
aI73
aI83
aI94
aI49
aI-47
aI-87
aI0
aI93
aI91
aI-9
aI-75
aI-57
aI4
aI62
aI77
aI37
aI-8
aI-13
aI-94
aI81
aI-88
aI18
aI-48
aI29
aI82
aI-11
aI66
aI-76
aI7
aI43
aI32
aI7
aI-92
aI9
aI84
aI-22
aI40
aI-81
aI-17
aI24
aI-53
aI42
aI-75
aI89
aI6
aI40
aI-8
aI38
aI-35
aI-20
aI-91
aI30
aI26
aI57
aI70
aI-85
aI-20
aI43
aI29
aI-64
aI-87
aI46
aI45
aI59
aI79
aI-39
aI3
aI53
aI-49
aI36
aI-85
aI94
aI-5
aI-18
aI-53
aI-30
aI12
aI-71
aI-72
aI92
aI39
aI-20
aI-77
aI-9
aI-23
aI1
aI-46
aI-49
aI52
aa(lp74
I81
aI-41
aI-49
aI42
aI29
aI72
aI50
aI-65
aI93
aI-92
aI42
aI-80
aI-9
aI69
aI53
aI73
aI70
aI-66
aI-28
aI66
aI12
aI2
aI-76
aI-35
aI40
aI-50
aI46
aI-12
aI-37
aI-87
aI-78
aI-40
aI45
aI-94
aI-45
aI-5
aI-45
aI-18
aI-45
aI52
aI-26
aI52
aI-45
aI-30
aI16
aI-57
aI57
aI35
aI1
aI11
aI50
aI-28
aI-62
aI-37
aI66
aI54
aI19
aI86
aI81
aI-95
aI67
aI32
aI2
aI-2
aI-83
aI39
aI-99
aI68
aI42
aI22
aI-9
aI-60
aI-57
aI-8
aI-30
aI16
aI45
aI49
aI81
aI-37
aI-43
aI63
aI-57
aI-55
aI30
aI67
aI99
aI37
aI95
aI-49
aI68
aI-79
aI-82
aI-28
aI54
aI-97
aI-77
aI-41
aI32
aI95
aa(lp75
I96
aI-63
aI-77
aI-45
aI-23
aI87
aI-26
aI40
aI62
aI-84
aI96
aI98
aI4
aI-13
aI-71
aI-24
aI-1
aI-55
aI95
aI-61
aI-26
aI99
aI-100
aI66
aI-88
aI29
aI67
aI14
aI29
aI-34
aI-6
aI-26
aI44
aI-100
aI-21
aI16
aI-50
aI7
aI79
aI-56
aI-49
aI28
aI7
aI83
aI-99
aI44
aI8
aI-58
aI42
aI-81
aI-65
aI14
aI-61
aI33
aI-90
aI24
aI-10
aI-2
aI74
aI7
aI64
aI-35
aI74
aI-94
aI-68
aI76
aI-66
aI51
aI-9
aI21
aI8
aI-28
aI-9
aI-2
aI-12
aI49
aI6
aI-84
aI-62
aI-25
aI17
aI-8
aI-38
aI71
aI83
aI-51
aI52
aI-9
aI-57
aI97
aI-11
aI51
aI-58
aI-93
aI-83
aI-46
aI60
aI39
aI-97
aI-79
aa(lp76
I-43
aI-16
aI73
aI-46
aI32
aI-54
aI1
aI0
aI-42
aI-25
aI-49
aI76
aI62
aI34
aI69
aI-89
aI77
aI-30
aI38
aI-17
aI-36
aI4
aI-7
aI55
aI-49
aI-18
aI61
aI-8
aI-85
aI-58
aI78
aI-19
aI-35
aI-5
aI44
aI-95
aI61
aI32
aI-25
aI58
aI-16
aI-6
aI61
aI-93
aI16
aI-2
aI32
aI92
aI43
aI48
aI34
aI-92
aI90
aI11
aI66
aI10
aI-12
aI-23
aI-51
aI18
aI-52
aI23
aI-98
aI60
aI33
aI-85
aI16
aI-10
aI59
aI-85
aI-67
aI-69
aI-11
aI-58
aI-87
aI63
aI84
aI-33
aI-16
aI-34
aI0
aI-54
aI0
aI18
aI-26
aI92
aI-26
aI-67
aI-48
aI57
aI-64
aI90
aI-62
aI48
aI31
aI-47
aI-63
aI-20
aI-31
aI17
aa(lp77
I-99
aI23
aI43
aI-66
aI-13
aI35
aI-90
aI-27
aI16
aI68
aI48
aI-68
aI28
aI25
aI80
aI-27
aI-39
aI28
aI14
aI-3
aI21
aI53
aI-26
aI-97
aI-8
aI-35
aI3
aI40
aI33
aI-46
aI78
aI-52
aI71
aI82
aI-9
aI12
aI-73
aI-92
aI-61
aI13
aI-87
aI-12
aI66
aI-49
aI84
aI-72
aI93
aI-69
aI-77
aI84
aI-42
aI-75
aI32
aI65
aI1
aI4
aI91
aI45
aI-76
aI78
aI-96
aI-58
aI-84
aI-33
aI-3
aI37
aI66
aI-96
aI90
aI16
aI75
aI-35
aI-17
aI-47
aI58
aI42
aI52
aI-11
aI-31
aI-20
aI-67
aI76
aI-74
aI84
aI-71
aI75
aI-85
aI-31
aI-54
aI-84
aI-39
aI45
aI-37
aI-47
aI-90
aI77
aI39
aI-50
aI37
aI58
aa(lp78
I10
aI64
aI-90
aI32
aI12
aI-85
aI87
aI65
aI-60
aI-78
aI39
aI65
aI23
aI32
aI77
aI-84
aI11
aI53
aI-89
aI-16
aI53
aI-19
aI-50
aI-25
aI53
aI31
aI66
aI66
aI-12
aI86
aI-77
aI-90
aI-51
aI-45
aI13
aI83
aI52
aI65
aI-75
aI73
aI78
aI-7
aI-46
aI60
aI-11
aI89
aI-84
aI-7
aI-35
aI-85
aI100
aI-48
aI-74
aI28
aI24
aI-40
aI60
aI17
aI32
aI-52
aI8
aI-89
aI75
aI0
aI-16
aI-64
aI7
aI83
aI-15
aI28
aI58
aI-97
aI-95
aI-5
aI63
aI0
aI-63
aI-2
aI64
aI78
aI46
aI-91
aI58
aI-30
aI-76
aI-35
aI87
aI99
aI18
aI51
aI42
aI-34
aI13
aI-83
aI3
aI-62
aI-83
aI43
aI-17
aI25
aa(lp79
I26
aI-34
aI-69
aI-42
aI-33
aI-66
aI-91
aI-57
aI2
aI6
aI89
aI61
aI11
aI-45
aI-30
aI-46
aI-71
aI47
aI58
aI-57
aI-31
aI-90
aI-34
aI-16
aI-43
aI10
aI-13
aI14
aI1
aI-64
aI-68
aI32
aI-55
aI34
aI-26
aI-50
aI79
aI-56
aI37
aI53
aI-99
aI-88
aI-21
aI23
aI-8
aI-48
aI80
aI-83
aI98
aI-26
aI11
aI20
aI-65
aI-7
aI-40
aI36
aI17
aI-8
aI-14
aI4
aI-64
aI-42
aI31
aI96
aI-13
aI56
aI-24
aI91
aI79
aI33
aI0
aI-26
aI25
aI33
aI-20
aI-72
aI-53
aI77
aI-5
aI-11
aI-80
aI1
aI46
aI-53
aI6
aI62
aI-18
aI-76
aI-83
aI56
aI-21
aI83
aI85
aI99
aI-85
aI-76
aI-20
aI79
aI-30
aI54
aa(lp80
I-10
aI-64
aI38
aI-6
aI89
aI-30
aI-19
aI-100
aI64
aI65
aI68
aI45
aI-66
aI78
aI40
aI-1
aI-9
aI-20
aI-42
aI8
aI59
aI82
aI83
aI15
aI-15
aI51
aI70
aI22
aI-82
aI26
aI-71
aI19
aI-94
aI-24
aI80
aI-8
aI32
aI-83
aI-35
aI18
aI-10
aI42
aI11
aI-20
aI-95
aI28
aI32
aI56
aI-94
aI-22
aI98
aI39
aI-41
aI-21
aI36
aI-51
aI40
aI-1
aI-9
aI69
aI-66
aI-85
aI25
aI4
aI-31
aI-64
aI-39
aI34
aI89
aI-25
aI-18
aI19
aI37
aI-10
aI-89
aI-34
aI-77
aI75
aI-54
aI4
aI3
aI93
aI87
aI-34
aI-61
aI94
aI68
aI72
aI32
aI67
aI-56
aI76
aI-19
aI95
aI18
aI86
aI-19
aI-52
aI-92
aI35
aa(lp81
I-61
aI78
aI-56
aI-71
aI-43
aI-69
aI43
aI83
aI-62
aI38
aI98
aI-98
aI79
aI73
aI-33
aI-46
aI-94
aI-32
aI18
aI69
aI-28
aI20
aI-9
aI-45
aI69
aI89
aI51
aI-51
aI-76
aI20
aI28
aI-78
aI-82
aI42
aI-32
aI84
aI21
aI-89
aI-60
aI-38
aI54
aI-81
aI-51
aI61
aI-70
aI81
aI7
aI71
aI-91
aI-53
aI33
aI24
aI13
aI-29
aI-9
aI76
aI-31
aI95
aI-80
aI-49
aI-91
aI91
aI53
aI-47
aI2
aI-11
aI-88
aI-39
aI31
aI51
aI-60
aI-61
aI-12
aI80
aI-61
aI25
aI-92
aI23
aI-75
aI43
aI-14
aI-74
aI90
aI-68
aI19
aI-3
aI-20
aI3
aI-45
aI-65
aI16
aI55
aI-18
aI-87
aI-64
aI83
aI-42
aI-57
aI-20
aI-67
aa(lp82
I5
aI40
aI68
aI74
aI-79
aI-31
aI-92
aI-28
aI-8
aI50
aI26
aI-37
aI-12
aI-11
aI95
aI41
aI70
aI-77
aI14
aI55
aI-89
aI-58
aI-11
aI-84
aI-69
aI52
aI55
aI-64
aI-33
aI66
aI78
aI64
aI-57
aI-70
aI-35
aI36
aI68
aI-73
aI4
aI-32
aI-14
aI25
aI-63
aI71
aI-67
aI-29
aI-14
aI-7
aI-77
aI21
aI-98
aI-47
aI38
aI51
aI-66
aI60
aI27
aI-66
aI55
aI19
aI-2
aI-65
aI-69
aI-91
aI27
aI-100
aI32
aI-17
aI80
aI-5
aI-78
aI-48
aI0
aI-10
aI89
aI-98
aI69
aI-2
aI-87
aI42
aI10
aI85
aI-66
aI-2
aI85
aI90
aI-93
aI-18
aI-98
aI72
aI44
aI-57
aI-34
aI65
aI60
aI-77
aI42
aI-45
aI7
aI-59
aa(lp83
I-51
aI-21
aI9
aI37
aI88
aI-59
aI-24
aI-14
aI-13
aI-66
aI69
aI100
aI-72
aI-57
aI21
aI25
aI61
aI-66
aI-3
aI45
aI-98
aI-75
aI62
aI48
aI-96
aI97
aI-58
aI58
aI-41
aI-15
aI-28
aI-92
aI80
aI-94
aI25
aI71
aI-20
aI43
aI-15
aI-7
aI-100
aI87
aI24
aI21
aI-90
aI59
aI-47
aI56
aI2
aI-19
aI-33
aI12
aI-7
aI95
aI54
aI-100
aI93
aI96
aI-23
aI98
aI91
aI72
aI98
aI49
aI6
aI97
aI-61
aI96
aI76
aI86
aI33
aI-76
aI28
aI18
aI-5
aI-22
aI85
aI77
aI-65
aI48
aI-29
aI-100
aI-54
aI87
aI-83
aI11
aI-15
aI72
aI73
aI-78
aI-90
aI98
aI68
aI48
aI79
aI20
aI-69
aI-74
aI-34
aI-10
aa(lp84
I-23
aI14
aI34
aI26
aI-43
aI-77
aI-44
aI-43
aI48
aI-49
aI37
aI-96
aI68
aI20
aI40
aI64
aI84
aI1
aI-33
aI95
aI1
aI-90
aI-40
aI-58
aI85
aI-39
aI-36
aI24
aI-30
aI96
aI-65
aI13
aI80
aI-40
aI85
aI-50
aI-51
aI-38
aI-82
aI18
aI2
aI-60
aI18
aI-37
aI-10
aI66
aI47
aI76
aI-4
aI86
aI-84
aI43
aI45
aI4
aI-31
aI16
aI74
aI-83
aI56
aI-75
aI-49
aI71
aI49
aI-73
aI23
aI9
aI4
aI-1
aI-20
aI80
aI77
aI-35
aI-84
aI-81
aI50
aI75
aI59
aI-61
aI-95
aI25
aI-5
aI-47
aI-48
aI-12
aI-22
aI-46
aI46
aI-57
aI-94
aI4
aI-73
aI25
aI15
aI58
aI-90
aI50
aI-87
aI-58
aI14
aI-67
aa(lp85
I52
aI77
aI-68
aI-37
aI-55
aI61
aI6
aI30
aI48
aI100
aI3
aI14
aI65
aI-17
aI28
aI54
aI-68
aI83
aI-14
aI-16
aI-27
aI13
aI44
aI78
aI-21
aI-92
aI-34
aI32
aI17
aI67
aI-23
aI-42
aI-28
aI-84
aI78
aI66
aI-76
aI12
aI19
aI-69
aI-89
aI-99
aI-88
aI62
aI45
aI-32
aI97
aI-56
aI-95
aI19
aI89
aI-62
aI90
aI-77
aI-26
aI86
aI24
aI88
aI58
aI-44
aI-78
aI-70
aI-58
aI-52
aI79
aI98
aI-40
aI-78
aI35
aI-44
aI30
aI-48
aI-14
aI25
aI-14
aI-95
aI65
aI77
aI19
aI-94
aI79
aI21
aI-25
aI42
aI-32
aI72
aI38
aI-17
aI-9
aI77
aI95
aI-67
aI-11
aI95
aI74
aI92
aI91
aI-62
aI73
aI46
aa(lp86
I15
aI-92
aI-96
aI-77
aI45
aI-21
aI-36
aI24
aI83
aI-14
aI26
aI-74
aI12
aI30
aI-1
aI70
aI-31
aI-69
aI35
aI-4
aI-28
aI-21
aI58
aI100
aI-97
aI21
aI53
aI-64
aI-47
aI-21
aI-61
aI50
aI91
aI-46
aI-20
aI-66
aI76
aI81
aI61
aI-69
aI1
aI-40
aI28
aI-48
aI4
aI100
aI-60
aI26
aI46
aI-38
aI-91
aI34
aI-50
aI63
aI44
aI4
aI-65
aI-7
aI-5
aI42
aI83
aI-17
aI58
aI-42
aI10
aI-28
aI96
aI-13
aI-88
aI89
aI-92
aI-14
aI64
aI-35
aI30
aI-56
aI26
aI-56
aI-72
aI-84
aI8
aI93
aI38
aI72
aI-85
aI4
aI-30
aI-44
aI58
aI37
aI-15
aI-10
aI43
aI49
aI79
aI26
aI-45
aI5
aI0
aI64
aa(lp87
I37
aI-3
aI99
aI-51
aI46
aI92
aI-80
aI-19
aI27
aI-81
aI17
aI95
aI-72
aI-54
aI-68
aI8
aI58
aI-21
aI45
aI21
aI15
aI66
aI-36
aI-69
aI88
aI74
aI-95
aI18
aI-46
aI-99
aI9
aI-44
aI-44
aI-34
aI5
aI48
aI-16
aI62
aI13
aI56
aI76
aI83
aI-16
aI12
aI-46
aI36
aI89
aI20
aI1
aI-83
aI38
aI66
aI34
aI-47
aI62
aI58
aI49
aI48
aI52
aI-72
aI87
aI92
aI68
aI-76
aI42
aI-80
aI-33
aI-37
aI80
aI-56
aI42
aI-9
aI27
aI81
aI84
aI-88
aI-49
aI-27
aI-46
aI53
aI-78
aI72
aI-45
aI48
aI77
aI-21
aI-1
aI83
aI30
aI0
aI-83
aI41
aI5
aI18
aI-72
aI-90
aI75
aI99
aI100
aI-10
aa(lp88
I-68
aI-76
aI-95
aI30
aI-85
aI99
aI91
aI-17
aI-78
aI-66
aI84
aI57
aI2
aI-14
aI22
aI63
aI-51
aI66
aI-42
aI77
aI-80
aI49
aI-29
aI7
aI-73
aI15
aI16
aI0
aI32
aI-73
aI-87
aI80
aI38
aI33
aI81
aI-20
aI46
aI-58
aI63
aI-93
aI-77
aI-12
aI-13
aI95
aI-10
aI9
aI33
aI89
aI65
aI-86
aI-58
aI-43
aI-39
aI98
aI-53
aI-43
aI52
aI-33
aI-46
aI-43
aI81
aI35
aI-98
aI99
aI-26
aI26
aI-83
aI-4
aI-71
aI73
aI-87
aI-93
aI-98
aI69
aI78
aI19
aI-13
aI44
aI-21
aI27
aI47
aI-66
aI25
aI-55
aI-57
aI50
aI45
aI52
aI60
aI34
aI-71
aI-6
aI-48
aI-27
aI14
aI-66
aI-21
aI31
aI57
aI4
aa(lp89
I6
aI-56
aI-86
aI97
aI51
aI71
aI68
aI91
aI-66
aI-52
aI-75
aI25
aI84
aI-77
aI-41
aI-6
aI15
aI85
aI16
aI-28
aI29
aI51
aI84
aI49
aI-63
aI94
aI52
aI-56
aI19
aI-10
aI-56
aI69
aI-15
aI-8
aI12
aI71
aI75
aI-7
aI1
aI24
aI60
aI2
aI100
aI-27
aI30
aI-58
aI98
aI-70
aI4
aI-77
aI83
aI80
aI-81
aI34
aI84
aI51
aI98
aI66
aI20
aI-16
aI-87
aI64
aI78
aI35
aI-70
aI98
aI2
aI-55
aI91
aI76
aI60
aI-13
aI67
aI59
aI61
aI15
aI13
aI68
aI58
aI-40
aI52
aI87
aI-59
aI-50
aI22
aI17
aI-28
aI35
aI92
aI-10
aI-9
aI48
aI42
aI98
aI85
aI-45
aI-99
aI92
aI64
aI-25
aa(lp90
I23
aI-83
aI83
aI-26
aI-39
aI-65
aI-57
aI-22
aI-56
aI-31
aI48
aI51
aI-25
aI-19
aI-85
aI25
aI-28
aI10
aI-94
aI-45
aI91
aI77
aI91
aI9
aI-11
aI-24
aI-93
aI-23
aI-97
aI-5
aI-75
aI47
aI16
aI-67
aI-92
aI-90
aI-21
aI-91
aI-74
aI-30
aI-87
aI52
aI21
aI82
aI5
aI-76
aI-14
aI59
aI-12
aI2
aI64
aI-24
aI-52
aI-71
aI50
aI-47
aI12
aI77
aI28
aI-45
aI-8
aI17
aI37
aI47
aI51
aI-17
aI62
aI-5
aI3
aI-90
aI58
aI72
aI1
aI-8
aI57
aI-59
aI-97
aI100
aI-32
aI73
aI81
aI2
aI37
aI68
aI35
aI66
aI53
aI40
aI63
aI-35
aI-95
aI-14
aI-77
aI1
aI67
aI-37
aI2
aI-25
aI28
aI-94
aa(lp91
I-32
aI7
aI-32
aI-94
aI91
aI-31
aI95
aI76
aI-40
aI-71
aI75
aI86
aI61
aI72
aI-74
aI44
aI-98
aI-38
aI92
aI2
aI-57
aI-75
aI96
aI89
aI86
aI-89
aI34
aI-84
aI-78
aI-15
aI21
aI26
aI49
aI66
aI88
aI-74
aI-11
aI-52
aI48
aI53
aI7
aI63
aI-92
aI22
aI17
aI23
aI-61
aI-42
aI-35
aI71
aI10
aI98
aI80
aI-2
aI-58
aI7
aI-34
aI4
aI-69
aI0
aI99
aI-76
aI-54
aI85
aI77
aI97
aI44
aI55
aI-45
aI57
aI82
aI19
aI64
aI-47
aI97
aI25
aI63
aI-87
aI70
aI-54
aI-60
aI18
aI82
aI-33
aI-30
aI19
aI-97
aI-8
aI-45
aI45
aI44
aI-31
aI60
aI97
aI-52
aI10
aI-1
aI68
aI-17
aI-100
aa(lp92
I-74
aI-1
aI61
aI-23
aI-97
aI-57
aI28
aI-35
aI-29
aI-16
aI71
aI76
aI-23
aI64
aI-61
aI19
aI-46
aI-78
aI-89
aI86
aI82
aI94
aI65
aI65
aI11
aI-9
aI-40
aI21
aI62
aI-55
aI-10
aI-8
aI-47
aI-52
aI-62
aI1
aI98
aI61
aI36
aI-96
aI-25
aI38
aI1
aI-59
aI-3
aI-31
aI72
aI-48
aI-1
aI1
aI-80
aI33
aI18
aI5
aI95
aI51
aI-4
aI-66
aI2
aI92
aI17
aI-32
aI-83
aI92
aI-59
aI-93
aI-51
aI-54
aI-77
aI64
aI-36
aI14
aI-73
aI33
aI11
aI12
aI-22
aI-8
aI-25
aI63
aI-34
aI-23
aI64
aI-31
aI7
aI-12
aI-49
aI-63
aI-16
aI4
aI48
aI-27
aI8
aI-92
aI-33
aI-59
aI-62
aI24
aI57
aI50
aa(lp93
I-92
aI95
aI79
aI60
aI-13
aI87
aI-33
aI-78
aI21
aI-65
aI90
aI17
aI82
aI59
aI-46
aI-39
aI-69
aI-58
aI-63
aI78
aI91
aI-49
aI47
aI-28
aI38
aI39
aI-89
aI75
aI-19
aI-66
aI90
aI-54
aI72
aI54
aI80
aI-55
aI-61
aI69
aI-33
aI50
aI46
aI-46
aI92
aI-1
aI18
aI6
aI-33
aI-61
aI-11
aI98
aI32
aI32
aI65
aI95
aI38
aI-88
aI-53
aI-38
aI-49
aI-42
aI-87
aI36
aI26
aI-8
aI-73
aI-62
aI-72
aI-47
aI-43
aI28
aI25
aI-46
aI78
aI54
aI21
aI-25
aI-8
aI9
aI62
aI-51
aI42
aI74
aI88
aI13
aI76
aI-22
aI21
aI97
aI10
aI94
aI59
aI57
aI34
aI-73
aI-42
aI23
aI-48
aI-75
aI-94
aI26
aa(lp94
I-9
aI-83
aI-82
aI-51
aI-8
aI-29
aI87
aI94
aI-24
aI-84
aI58
aI80
aI-73
aI-90
aI64
aI62
aI-76
aI-5
aI-52
aI44
aI-35
aI26
aI82
aI-38
aI-100
aI-19
aI63
aI-27
aI41
aI-10
aI-54
aI26
aI28
aI56
aI-57
aI-68
aI-66
aI8
aI-71
aI-21
aI46
aI-97
aI90
aI23
aI10
aI-34
aI-13
aI-57
aI-61
aI-38
aI79
aI-96
aI-41
aI-42
aI48
aI82
aI58
aI-49
aI1
aI31
aI-89
aI90
aI20
aI-90
aI29
aI34
aI87
aI86
aI-56
aI-44
aI57
aI-11
aI-61
aI-42
aI-61
aI0
aI-80
aI74
aI61
aI-89
aI71
aI95
aI66
aI-23
aI78
aI-20
aI-61
aI83
aI-48
aI-79
aI85
aI-89
aI23
aI34
aI-66
aI52
aI-15
aI21
aI69
aI-7
aa(lp95
I9
aI22
aI-47
aI-94
aI41
aI48
aI22
aI-90
aI18
aI-17
aI40
aI-18
aI-67
aI83
aI-45
aI60
aI44
aI-79
aI88
aI21
aI-38
aI-65
aI46
aI-94
aI40
aI-51
aI98
aI-17
aI59
aI-87
aI80
aI-70
aI63
aI70
aI-16
aI-89
aI35
aI99
aI-27
aI98
aI-66
aI66
aI75
aI59
aI82
aI46
aI9
aI-90
aI-71
aI11
aI65
aI-24
aI-3
aI89
aI99
aI32
aI-25
aI-85
aI-84
aI-93
aI1
aI70
aI79
aI69
aI57
aI-98
aI-1
aI-37
aI-87
aI68
aI-11
aI45
aI-59
aI64
aI13
aI100
aI-34
aI-41
aI82
aI22
aI74
aI-40
aI67
aI-25
aI-34
aI66
aI-89
aI-84
aI35
aI34
aI51
aI95
aI-84
aI-60
aI-73
aI1
aI21
aI58
aI39
aI-24
aa(lp96
I96
aI61
aI-8
aI-87
aI70
aI-34
aI-3
aI-72
aI18
aI34
aI74
aI-24
aI58
aI-26
aI-7
aI-12
aI41
aI-52
aI-43
aI-85
aI80
aI74
aI-51
aI-11
aI18
aI-84
aI27
aI8
aI-72
aI29
aI12
aI21
aI64
aI19
aI-32
aI-90
aI-74
aI-72
aI38
aI-76
aI69
aI69
aI61
aI-82
aI60
aI-94
aI23
aI-60
aI-52
aI-43
aI-46
aI-71
aI51
aI83
aI27
aI-42
aI24
aI-68
aI-11
aI-25
aI57
aI90
aI2
aI-37
aI0
aI0
aI-17
aI-71
aI-98
aI7
aI27
aI-48
aI4
aI43
aI-43
aI42
aI84
aI-24
aI-62
aI93
aI70
aI15
aI-86
aI-58
aI-29
aI95
aI4
aI-12
aI73
aI78
aI-87
aI70
aI48
aI18
aI-80
aI-93
aI10
aI-14
aI-99
aI69
aa(lp97
I-23
aI-77
aI37
aI-85
aI-31
aI-66
aI-68
aI-29
aI77
aI57
aI-8
aI99
aI-72
aI-20
aI-86
aI59
aI-28
aI-45
aI-47
aI98
aI-91
aI95
aI-1
aI47
aI49
aI-85
aI-42
aI36
aI73
aI45
aI42
aI66
aI-51
aI-94
aI-31
aI-92
aI-68
aI11
aI97
aI-37
aI-22
aI90
aI32
aI88
aI38
aI57
aI94
aI-77
aI-92
aI10
aI51
aI-85
aI-85
aI48
aI-63
aI37
aI-89
aI-18
aI-18
aI61
aI64
aI-97
aI90
aI55
aI-37
aI-89
aI98
aI51
aI-78
aI-17
aI92
aI30
aI29
aI22
aI54
aI-94
aI8
aI89
aI-70
aI-76
aI-73
aI1
aI6
aI9
aI31
aI-44
aI-59
aI-73
aI19
aI61
aI-73
aI-96
aI72
aI-53
aI91
aI-10
aI89
aI-43
aI46
aI-9
aa(lp98
I3
aI72
aI68
aI90
aI-53
aI-68
aI21
aI-76
aI-40
aI15
aI46
aI-4
aI99
aI64
aI26
aI-77
aI-64
aI43
aI-45
aI39
aI-3
aI-34
aI80
aI-51
aI-90
aI-12
aI-49
aI42
aI2
aI94
aI87
aI89
aI66
aI-52
aI75
aI31
aI-92
aI-1
aI3
aI-80
aI23
aI57
aI-66
aI-21
aI-45
aI-52
aI-26
aI18
aI79
aI-72
aI28
aI-36
aI-100
aI42
aI4
aI86
aI18
aI-79
aI28
aI77
aI22
aI-100
aI98
aI21
aI25
aI2
aI-37
aI-96
aI37
aI-41
aI-30
aI46
aI39
aI-15
aI-59
aI0
aI49
aI-31
aI17
aI-59
aI38
aI87
aI59
aI66
aI-50
aI-62
aI-59
aI-84
aI45
aI76
aI91
aI17
aI-91
aI65
aI-57
aI-56
aI72
aI52
aI66
aI2
aa(lp99
I-63
aI-4
aI-86
aI36
aI86
aI17
aI39
aI55
aI61
aI-76
aI-71
aI-5
aI33
aI49
aI71
aI92
aI-17
aI80
aI76
aI-63
aI-12
aI-63
aI-89
aI96
aI91
aI-94
aI44
aI19
aI-77
aI0
aI-28
aI-27
aI-72
aI-7
aI37
aI85
aI-78
aI78
aI90
aI-34
aI42
aI91
aI-67
aI76
aI22
aI-78
aI-18
aI9
aI71
aI-67
aI-68
aI-87
aI-61
aI16
aI51
aI45
aI5
aI1
aI71
aI29
aI-99
aI-55
aI99
aI16
aI-48
aI-73
aI26
aI37
aI-25
aI-86
aI87
aI-22
aI24
aI-19
aI41
aI-91
aI-65
aI-39
aI64
aI57
aI73
aI12
aI42
aI19
aI-5
aI82
aI-67
aI-32
aI18
aI77
aI83
aI18
aI-92
aI-34
aI48
aI-63
aI27
aI64
aI-59
aI35
aa(lp100
I32
aI30
aI-100
aI75
aI-54
aI15
aI5
aI-42
aI19
aI22
aI-72
aI-51
aI-10
aI-79
aI-33
aI54
aI92
aI56
aI-1
aI70
aI-37
aI-70
aI-100
aI-67
aI14
aI-14
aI-79
aI-3
aI-88
aI-27
aI-34
aI-22
aI-75
aI28
aI18
aI-78
aI-100
aI-39
aI37
aI89
aI-14
aI72
aI-18
aI-72
aI-100
aI72
aI-6
aI-38
aI-3
aI24
aI54
aI70
aI-71
aI-3
aI-90
aI-15
aI-72
aI70
aI-81
aI-85
aI100
aI-71
aI53
aI-39
aI-78
aI81
aI-96
aI-29
aI66
aI50
aI12
aI65
aI-28
aI49
aI8
aI-2
aI-54
aI3
aI-35
aI18
aI-98
aI-96
aI88
aI90
aI-45
aI46
aI68
aI-13
aI-58
aI-30
aI-25
aI71
aI36
aI44
aI-71
aI37
aI64
aI-88
aI-42
aI-48
aa.