(lp0
(lp1
I4
aI-1
aI-8
aI-6
aI-7
aI-4
aI5
aI0
aI-6
aI10
aa(lp2
I-5
aI2
aI-2
aI-9
aI2
aI-10
aI9
aI-1
aI3
aI-6
aa(lp3
I-8
aI-1
aI-10
aI4
aI3
aI-3
aI8
aI5
aI-4
aI-4
aa(lp4
I-7
aI-4
aI5
aI-9
aI10
aI-10
aI7
aI-1
aI4
aI10
aa(lp5
I9
aI8
aI8
aI5
aI-8
aI-7
aI4
aI10
aI-9
aI5
aa(lp6
I7
aI-3
aI5
aI8
aI-1
aI3
aI-4
aI-7
aI8
aI8
aa(lp7
I6
aI-5
aI1
aI-6
aI-8
aI10
aI-8
aI10
aI2
aI10
aa(lp8
I-3
aI-3
aI8
aI9
aI0
aI-7
aI-6
aI-2
aI10
aI-2
aa(lp9
I9
aI7
aI-7
aI2
aI8
aI7
aI-2
aI6
aI-2
aI7
aa(lp10
I4
aI4
aI-4
aI5
aI0
aI-4
aI-6
aI-5
aI-4
aI-5
aa(lp11
I5
aI1
aI6
aI-7
aI-6
aI-9
aI1
aI-9
aI-8
aI8
aa(lp12
I-6
aI-1
aI4
aI9
aI2
aI10
aI-6
aI-6
aI9
aI-9
aa(lp13
I0
aI9
aI9
aI0
aI6
aI3
aI10
aI7
aI10
aI4
aa(lp14
I-8
aI-2
aI7
aI6
aI2
aI-4
aI4
aI1
aI-2
aI8
aa(lp15
I7
aI3
aI-7
aI-4
aI8
aI8
aI8
aI-5
aI1
aI-7
aa(lp16
I-3
aI2
aI0
aI-8
aI10
aI-5
aI-7
aI6
aI2
aI-4
aa(lp17
I6
aI-3
aI-8
aI-9
aI-7
aI-4
aI-1
aI-2
aI3
aI2
aa(lp18
I-6
aI4
aI-6
aI-10
aI0
aI-4
aI-1
aI0
aI8
aI0
aa(lp19
I-8
aI-8
aI-10
aI10
aI-7
aI-7
aI8
aI1
aI-9
aI-9
aa(lp20
I-1
aI-3
aI-3
aI-8
aI7
aI-7
aI-1
aI-4
aI-3
aI-3
aa(lp21
I-3
aI5
aI9
aI-9
aI-4
aI2
aI10
aI7
aI5
aI-1
aa(lp22
I-10
aI4
aI9
aI-3
aI-3
aI-1
aI9
aI5
aI-9
aI5
aa(lp23
I3
aI6
aI-6
aI-8
aI-3
aI-8
aI9
aI-6
aI-3
aI9
aa(lp24
I7
aI-6
aI-8
aI-10
aI-5
aI8
aI-9
aI7
aI0
aI10
aa(lp25
I9
aI9
aI6
aI1
aI-10
aI8
aI-2
aI-8
aI-2
aI-5
aa(lp26
I-1
aI-6
aI4
aI-2
aI4
aI3
aI1
aI4
aI3
aI10
aa(lp27
I1
aI2
aI3
aI-4
aI0
aI1
aI10
aI-1
aI-8
aI-9
aa(lp28
I-9
aI5
aI1
aI6
aI-4
aI2
aI1
aI-1
aI6
aI5
aa(lp29
I0
aI-10
aI0
aI-4
aI1
aI-9
aI-5
aI-10
aI-10
aI1
aa(lp30
I-6
aI4
aI10
aI5
aI-9
aI-9
aI-9
aI5
aI4
aI3
aa(lp31
I0
aI-4
aI3
aI7
aI-6
aI-4
aI-6
aI3
aI9
aI4
aa(lp32
I6
aI5
aI-3
aI6
aI-7
aI-8
aI-2
aI1
aI-1
aI4
aa(lp33
I-4
aI-4
aI-4
aI-1
aI-1
aI-3
aI-8
aI-4
aI-5
aI10
aa(lp34
I0
aI-1
aI8
aI2
aI10
aI1
aI10
aI-8
aI0
aI5
aa(lp35
I-3
aI-4
aI-8
aI-1
aI2
aI-4
aI-6
aI-5
aI-2
aI6
aa(lp36
I-4
aI-10
aI3
aI-6
aI-7
aI9
aI-8
aI-9
aI8
aI3
aa(lp37
I-8
aI-6
aI-4
aI1
aI0
aI1
aI-4
aI-10
aI3
aI6
aa(lp38
I9
aI4
aI-10
aI2
aI10
aI-9
aI7
aI-2
aI-1
aI0
aa(lp39
I-7
aI9
aI6
aI4
aI-8
aI9
aI7
aI2
aI-9
aI-6
aa(lp40
I10
aI-7
aI6
aI9
aI-8
aI-7
aI-5
aI9
aI-6
aI9
aa(lp41
I-5
aI8
aI-1
aI-1
aI6
aI9
aI7
aI-4
aI10
aI-2
aa(lp42
I8
aI7
aI4
aI-9
aI-1
aI-8
aI4
aI4
aI2
aI-3
aa(lp43
I-1
aI1
aI2
aI-5
aI-4
aI9
aI1
aI-7
aI2
aI5
aa(lp44
I-6
aI-3
aI-9
aI9
aI-5
aI3
aI0
aI4
aI5
aI7
aa(lp45
I2
aI0
aI-7
aI7
aI9
aI1
aI3
aI5
aI2
aI-8
aa(lp46
I9
aI6
aI0
aI4
aI-7
aI4
aI6
aI-4
aI-4
aI-5
aa(lp47
I-5
aI-4
aI-2
aI5
aI10
aI-6
aI6
aI1
aI-5
aI5
aa(lp48
I4
aI-5
aI-8
aI-10
aI-9
aI-7
aI10
aI6
aI-1
aI-2
aa(lp49
I7
aI-6
aI-9
aI9
aI7
aI-8
aI-6
aI7
aI-10
aI1
aa(lp50
I-1
aI-2
aI8
aI0
aI-6
aI-4
aI-9
aI8
aI-6
aI4
aa(lp51
I-5
aI-1
aI0
aI8
aI-6
aI10
aI-4
aI6
aI5
aI-1
aa(lp52
I-1
aI-10
aI4
aI9
aI0
aI-9
aI7
aI-10
aI-9
aI1
aa(lp53
I-3
aI4
aI-4
aI10
aI2
aI8
aI8
aI5
aI3
aI-10
aa(lp54
I3
aI2
aI3
aI5
aI3
aI-9
aI3
aI3
aI-3
aI-9
aa(lp55
I9
aI3
aI10
aI4
aI6
aI-6
aI-7
aI-3
aI2
aI8
aa(lp56
I-2
aI5
aI1
aI-6
aI3
aI8
aI-2
aI-7
aI-5
aI-8
aa(lp57
I-7
aI-9
aI6
aI-8
aI6
aI-9
aI-9
aI10
aI-5
aI5
aa(lp58
I-10
aI6
aI-8
aI8
aI-5
aI-5
aI9
aI-5
aI9
aI-1
aa(lp59
I-10
aI-1
aI3
aI1
aI-4
aI6
aI7
aI-3
aI1
aI-5
aa(lp60
I-5
aI2
aI8
aI-6
aI-7
aI2
aI8
aI5
aI4
aI1
aa(lp61
I8
aI9
aI-10
aI5
aI-5
aI-4
aI2
aI-8
aI-1
aI-5
aa(lp62
I-3
aI8
aI3
aI5
aI6
aI6
aI-2
aI-2
aI-5
aI0
aa(lp63
I-3
aI5
aI5
aI-7
aI9
aI4
aI-3
aI-7
aI4
aI0
aa(lp64
I-6
aI9
aI4
aI4
aI-1
aI-4
aI5
aI0
aI-6
aI8
aa(lp65
I10
aI-9
aI0
aI7
aI1
aI-10
aI-3
aI-4
aI0
aI10
aa(lp66
I-8
aI10
aI-5
aI7
aI-4
aI8
aI-7
aI-9
aI-2
aI4
aa(lp67
I-8
aI-7
aI10
aI-7
aI1
aI-4
aI3
aI10
aI-9
aI-6
aa(lp68
I-9
aI-10
aI-8
aI7
aI-9
aI2
aI9
aI5
aI-7
aI9
aa(lp69
I-5
aI3
aI10
aI-3
aI5
aI8
aI5
aI-3
aI-1
aI-10
aa(lp70
I-6
aI9
aI8
aI8
aI-6
aI10
aI7
aI1
aI6
aI7
aa(lp71
I-10
aI9
aI6
aI-7
aI-3
aI10
aI2
aI-9
aI-3
aI-10
aa(lp72
I1
aI6
aI2
aI3
aI-5
aI-1
aI-9
aI-8
aI-4
aI0
aa(lp73
I9
aI2
aI8
aI0
aI4
aI4
aI1
aI-3
aI-8
aI10
aa(lp74
I1
aI4
aI-5
aI-4
aI10
aI-2
aI-5
aI-9
aI3
aI-10
aa(lp75
I2
aI-10
aI8
aI0
aI5
aI-7
aI9
aI-4
aI1
aI-3
aa(lp76
I-10
aI9
aI5
aI-1
aI10
aI-1
aI10
aI-3
aI7
aI1
aa(lp77
I-1
aI-9
aI-8
aI-7
aI3
aI6
aI10
aI-3
aI5
aI-2
aa(lp78
I1
aI-4
aI9
aI-1
aI-4
aI10
aI4
aI-4
aI-6
aI9
aa(lp79
I2
aI4
aI-4
aI-3
aI7
aI-8
aI8
aI-3
aI0
aI-10
aa(lp80
I0
aI1
aI6
aI7
aI-5
aI-3
aI-2
aI10
aI3
aI-2
aa(lp81
I3
aI-7
aI3
aI10
aI10
aI3
aI1
aI6
aI-2
aI0
aa(lp82
I-4
aI7
aI-8
aI-8
aI6
aI10
aI0
aI-1
aI5
aI7
aa(lp83
I5
aI-6
aI-6
aI-2
aI1
aI1
aI-7
aI5
aI-6
aI7
aa(lp84
I10
aI-10
aI-1
aI-5
aI-2
aI7
aI7
aI-5
aI9
aI-9
aa(lp85
I5
aI0
aI0
aI-5
aI0
aI-1
aI2
aI-4
aI-1
aI2
aa(lp86
I2
aI-1
aI10
aI-10
aI-7
aI-5
aI6
aI1
aI4
aI-3
aa(lp87
I10
aI-5
aI-10
aI-7
aI8
aI1
aI2
aI6
aI6
aI-2
aa(lp88
I10
aI6
aI0
aI2
aI10
aI6
aI-10
aI-4
aI-4
aI-9
aa(lp89
I7
aI1
aI-1
aI9
aI3
aI-9
aI-7
aI9
aI4
aI6
aa(lp90
I9
aI3
aI-3
aI8
aI-6
aI5
aI-7
aI1
aI0
aI-8
aa(lp91
I3
aI7
aI4
aI-8
aI3
aI1
aI5
aI6
aI-5
aI10
aa(lp92
I-7
aI-2
aI1
aI1
aI9
aI5
aI-9
aI6
aI-6
aI8
aa(lp93
I9
aI-4
aI-5
aI-8
aI6
aI-8
aI1
aI3
aI7
aI-3
aa(lp94
I8
aI4
aI1
aI-2
aI9
aI5
aI-2
aI-8
aI1
aI4
aa(lp95
I-6
aI1
aI-9
aI-6
aI-2
aI8
aI5
aI4
aI-1
aI-1
aa(lp96
I-5
aI-1
aI-6
aI-3
aI3
aI-5
aI-9
aI2
aI0
aI-3
aa(lp97
I9
aI-3
aI2
aI-5
aI10
aI-3
aI2
aI-6
aI-5
aI-2
aa(lp98
I-3
aI8
aI-9
aI-9
aI-3
aI-8
aI-2
aI-3
aI7
aI-4
aa(lp99
I-4
aI-9
aI2
aI2
aI-1
aI7
aI-9
aI-3
aI0
aI6
aa(lp100
I2
aI3
aI9
aI-2
aI4
aI-7
aI5
aI-10
aI-1
aI7
aa.