(lp0
(lp1
I18
aI-3
aI8
aI3
aI3
aI-6
aI8
aI0
aI2
aI19
aI-18
aI13
aI-20
aI20
aI14
aI3
aI14
aI10
aI-2
aI-14
aa(lp2
I-13
aI-15
aI-16
aI10
aI5
aI10
aI1
aI0
aI6
aI9
aI16
aI-9
aI-17
aI-10
aI2
aI18
aI-11
aI-11
aI1
aI3
aa(lp3
I0
aI-3
aI5
aI-16
aI19
aI9
aI-13
aI-10
aI-3
aI-15
aI-11
aI-8
aI-11
aI-16
aI-7
aI4
aI-17
aI0
aI-4
aI-11
aa(lp4
I17
aI-3
aI-3
aI10
aI4
aI16
aI9
aI-9
aI-19
aI-9
aI-14
aI2
aI-15
aI-13
aI1
aI7
aI4
aI3
aI-8
aI-7
aa(lp5
I4
aI9
aI-11
aI-12
aI-17
aI15
aI-20
aI8
aI-11
aI19
aI-9
aI6
aI-7
aI9
aI-5
aI19
aI9
aI15
aI10
aI11
aa(lp6
I-12
aI3
aI16
aI-11
aI12
aI-15
aI-3
aI3
aI6
aI-19
aI-3
aI16
aI-1
aI6
aI13
aI19
aI-9
aI1
aI-10
aI-5
aa(lp7
I-1
aI-7
aI1
aI-19
aI-13
aI-20
aI0
aI20
aI-1
aI-6
aI2
aI-14
aI-20
aI-14
aI1
aI1
aI19
aI9
aI13
aI13
aa(lp8
I12
aI-7
aI-7
aI-6
aI0
aI-3
aI-20
aI-20
aI0
aI-4
aI-17
aI-4
aI-5
aI1
aI5
aI4
aI-14
aI0
aI5
aI-19
aa(lp9
I18
aI7
aI17
aI10
aI18
aI6
aI-4
aI0
aI16
aI-20
aI0
aI20
aI-18
aI-9
aI-14
aI13
aI-13
aI-8
aI2
aI-7
aa(lp10
I18
aI3
aI10
aI-10
aI-8
aI15
aI0
aI-16
aI-17
aI18
aI13
aI16
aI-8
aI2
aI6
aI-4
aI9
aI19
aI3
aI18
aa(lp11
I13
aI20
aI-9
aI-16
aI-4
aI3
aI-13
aI-9
aI3
aI8
aI17
aI15
aI12
aI4
aI-14
aI-18
aI-20
aI5
aI-9
aI1
aa(lp12
I-12
aI-19
aI7
aI14
aI-10
aI-13
aI5
aI7
aI8
aI1
aI-4
aI-8
aI5
aI-3
aI-7
aI-2
aI4
aI-20
aI-7
aI2
aa(lp13
I-9
aI-5
aI-3
aI-11
aI10
aI-20
aI-4
aI-17
aI0
aI-2
aI-3
aI-2
aI9
aI6
aI10
aI4
aI3
aI10
aI-4
aI7
aa(lp14
I-5
aI4
aI-15
aI7
aI0
aI-1
aI-4
aI14
aI-5
aI18
aI-2
aI-16
aI16
aI9
aI-19
aI-19
aI17
aI-17
aI12
aI12
aa(lp15
I-9
aI-17
aI1
aI1
aI-4
aI8
aI-5
aI6
aI1
aI12
aI-17
aI-7
aI-6
aI7
aI-4
aI14
aI-20
aI19
aI5
aI5
aa(lp16
I2
aI9
aI-5
aI19
aI17
aI17
aI6
aI-10
aI-9
aI-3
aI3
aI1
aI-6
aI1
aI-7
aI-16
aI-13
aI-15
aI20
aI-9
aa(lp17
I19
aI-15
aI7
aI-16
aI2
aI-14
aI14
aI-18
aI-16
aI2
aI12
aI9
aI-16
aI-13
aI16
aI20
aI17
aI-3
aI9
aI-20
aa(lp18
I-8
aI6
aI-19
aI0
aI-12
aI-14
aI15
aI-17
aI19
aI9
aI5
aI7
aI-12
aI10
aI-6
aI3
aI-11
aI11
aI13
aI-18
aa(lp19
I-20
aI-7
aI18
aI15
aI-8
aI15
aI15
aI-12
aI6
aI6
aI8
aI11
aI-13
aI-17
aI18
aI19
aI-8
aI15
aI-1
aI-1
aa(lp20
I9
aI-6
aI17
aI3
aI-18
aI-1
aI-18
aI-8
aI5
aI-18
aI12
aI-5
aI10
aI-8
aI10
aI3
aI8
aI2
aI1
aI7
aa(lp21
I14
aI-8
aI0
aI-19
aI-18
aI7
aI-2
aI1
aI-10
aI-12
aI-19
aI7
aI4
aI2
aI1
aI-2
aI-18
aI20
aI20
aI-4
aa(lp22
I9
aI5
aI-3
aI16
aI10
aI-16
aI-1
aI7
aI-11
aI2
aI-3
aI12
aI3
aI14
aI18
aI3
aI-19
aI12
aI-14
aI12
aa(lp23
I10
aI12
aI-20
aI-4
aI18
aI-10
aI-12
aI3
aI-20
aI0
aI5
aI-6
aI6
aI-3
aI6
aI-8
aI6
aI1
aI6
aI-5
aa(lp24
I-19
aI-14
aI19
aI-9
aI0
aI-4
aI-9
aI-7
aI14
aI-3
aI9
aI20
aI-19
aI-13
aI-3
aI-3
aI11
aI-20
aI16
aI-6
aa(lp25
I-14
aI-12
aI0
aI-16
aI-14
aI-14
aI-9
aI16
aI7
aI-6
aI-18
aI10
aI18
aI20
aI-6
aI6
aI14
aI12
aI14
aI-2
aa(lp26
I-3
aI-1
aI9
aI-18
aI11
aI-13
aI-19
aI-19
aI2
aI17
aI0
aI3
aI-3
aI-12
aI13
aI1
aI14
aI4
aI-5
aI3
aa(lp27
I17
aI-3
aI13
aI3
aI-8
aI3
aI12
aI18
aI-8
aI-8
aI15
aI18
aI-17
aI15
aI4
aI-20
aI17
aI18
aI-1
aI14
aa(lp28
I-9
aI16
aI9
aI-15
aI8
aI-3
aI-17
aI-12
aI-18
aI18
aI10
aI20
aI-7
aI12
aI7
aI-14
aI15
aI-18
aI-3
aI19
aa(lp29
I19
aI-2
aI15
aI-13
aI8
aI19
aI14
aI10
aI4
aI3
aI-4
aI8
aI-9
aI-15
aI-12
aI-11
aI-6
aI16
aI-11
aI19
aa(lp30
I-20
aI3
aI-19
aI17
aI-13
aI19
aI-19
aI-13
aI12
aI-5
aI-1
aI10
aI15
aI-9
aI-6
aI5
aI5
aI20
aI-5
aI-4
aa(lp31
I8
aI3
aI-15
aI20
aI13
aI19
aI-1
aI7
aI3
aI8
aI17
aI12
aI8
aI-1
aI17
aI-8
aI-3
aI-11
aI5
aI8
aa(lp32
I0
aI-8
aI2
aI-2
aI-6
aI14
aI14
aI15
aI-8
aI12
aI-20
aI-8
aI-7
aI3
aI9
aI-15
aI5
aI-16
aI10
aI-6
aa(lp33
I7
aI18
aI5
aI-10
aI-8
aI4
aI7
aI-3
aI-6
aI15
aI4
aI17
aI-13
aI0
aI0
aI5
aI-3
aI18
aI-6
aI-9
aa(lp34
I-5
aI-3
aI-17
aI-2
aI17
aI-3
aI0
aI-2
aI-12
aI-2
aI-16
aI2
aI12
aI7
aI-6
aI0
aI-20
aI11
aI18
aI-7
aa(lp35
I8
aI-1
aI-12
aI-13
aI-13
aI4
aI-8
aI17
aI0
aI-15
aI-9
aI10
aI-19
aI-2
aI-10
aI5
aI-13
aI-17
aI-20
aI-13
aa(lp36
I16
aI3
aI-16
aI-12
aI18
aI20
aI19
aI-20
aI15
aI-17
aI-12
aI-12
aI-3
aI-9
aI17
aI-17
aI-13
aI-13
aI-18
aI-12
aa(lp37
I-12
aI11
aI-18
aI11
aI20
aI10
aI18
aI-8
aI-3
aI0
aI-11
aI14
aI-3
aI-16
aI12
aI14
aI6
aI17
aI12
aI8
aa(lp38
I-12
aI14
aI-14
aI-8
aI-16
aI-11
aI14
aI11
aI-10
aI-7
aI3
aI-11
aI-17
aI-18
aI-4
aI16
aI-10
aI-16
aI-18
aI17
aa(lp39
I17
aI-9
aI-6
aI1
aI-12
aI-3
aI-4
aI-13
aI6
aI15
aI-9
aI-17
aI-14
aI-3
aI10
aI14
aI10
aI-3
aI11
aI16
aa(lp40
I2
aI-19
aI1
aI-18
aI14
aI-3
aI-13
aI14
aI15
aI-7
aI15
aI7
aI11
aI-15
aI-8
aI-1
aI-20
aI-20
aI-1
aI14
aa(lp41
I-14
aI20
aI0
aI5
aI-12
aI-12
aI-9
aI-20
aI6
aI0
aI-15
aI6
aI-4
aI-17
aI8
aI9
aI6
aI2
aI1
aI-8
aa(lp42
I17
aI11
aI-4
aI-20
aI-13
aI16
aI-13
aI-15
aI9
aI-15
aI14
aI9
aI7
aI-14
aI1
aI6
aI0
aI-6
aI-2
aI15
aa(lp43
I-8
aI-4
aI19
aI11
aI-15
aI0
aI19
aI-1
aI-17
aI2
aI-11
aI-13
aI7
aI7
aI-11
aI-13
aI-12
aI-5
aI7
aI9
aa(lp44
I16
aI-2
aI11
aI16
aI2
aI17
aI1
aI-9
aI3
aI14
aI7
aI-12
aI-5
aI1
aI15
aI-8
aI14
aI-14
aI-9
aI-14
aa(lp45
I3
aI-17
aI14
aI9
aI-6
aI1
aI5
aI-11
aI-6
aI8
aI6
aI-16
aI-8
aI-20
aI-5
aI-12
aI5
aI-10
aI7
aI13
aa(lp46
I19
aI-9
aI1
aI-13
aI19
aI-2
aI16
aI14
aI15
aI-1
aI2
aI0
aI-19
aI-18
aI-14
aI11
aI19
aI9
aI1
aI2
aa(lp47
I-19
aI6
aI9
aI4
aI-12
aI-17
aI-20
aI-7
aI-20
aI10
aI3
aI16
aI19
aI0
aI-6
aI7
aI-9
aI-15
aI12
aI17
aa(lp48
I-7
aI20
aI-2
aI17
aI5
aI-5
aI-13
aI-12
aI5
aI11
aI-5
aI12
aI-19
aI16
aI18
aI18
aI-1
aI17
aI-5
aI-4
aa(lp49
I-2
aI-6
aI-10
aI19
aI6
aI-8
aI-4
aI-1
aI-16
aI4
aI11
aI18
aI-1
aI-2
aI7
aI17
aI-11
aI7
aI-20
aI-17
aa(lp50
I9
aI-8
aI3
aI-4
aI19
aI-10
aI-18
aI20
aI20
aI18
aI11
aI10
aI-12
aI8
aI-10
aI-9
aI-4
aI7
aI-4
aI-7
aa(lp51
I-2
aI-18
aI-20
aI8
aI-1
aI-3
aI-15
aI0
aI-14
aI20
aI9
aI-17
aI15
aI15
aI2
aI5
aI-19
aI8
aI14
aI12
aa(lp52
I-14
aI10
aI-10
aI1
aI-17
aI11
aI-5
aI9
aI-7
aI1
aI-15
aI7
aI4
aI8
aI14
aI13
aI13
aI-9
aI5
aI-17
aa(lp53
I-17
aI-8
aI2
aI-17
aI-4
aI14
aI20
aI-15
aI-19
aI-15
aI7
aI-20
aI3
aI7
aI-11
aI-9
aI-14
aI14
aI18
aI-4
aa(lp54
I0
aI12
aI2
aI9
aI-17
aI-5
aI7
aI16
aI-14
aI15
aI-16
aI2
aI-11
aI-12
aI14
aI16
aI-11
aI-15
aI-10
aI-9
aa(lp55
I-6
aI2
aI-5
aI4
aI-18
aI16
aI-13
aI-14
aI-2
aI6
aI5
aI12
aI-19
aI-8
aI-4
aI9
aI2
aI-6
aI10
aI17
aa(lp56
I17
aI-19
aI14
aI-8
aI-6
aI-11
aI20
aI-3
aI3
aI-6
aI18
aI-18
aI-2
aI7
aI-20
aI-5
aI12
aI-13
aI-3
aI13
aa(lp57
I17
aI-14
aI13
aI-5
aI3
aI10
aI-19
aI8
aI5
aI-15
aI-16
aI-3
aI-7
aI-6
aI14
aI-5
aI-17
aI11
aI-20
aI-20
aa(lp58
I8
aI19
aI15
aI-12
aI16
aI-20
aI4
aI4
aI15
aI9
aI13
aI0
aI-17
aI17
aI-3
aI-9
aI-3
aI-4
aI7
aI10
aa(lp59
I9
aI-7
aI-13
aI14
aI-3
aI-10
aI16
aI-11
aI-16
aI-7
aI-19
aI-4
aI18
aI-5
aI-20
aI-1
aI-18
aI-18
aI7
aI17
aa(lp60
I13
aI-7
aI-4
aI7
aI13
aI2
aI13
aI5
aI-10
aI15
aI9
aI10
aI-14
aI11
aI20
aI-9
aI-17
aI5
aI-1
aI20
aa(lp61
I1
aI12
aI14
aI18
aI12
aI-7
aI-4
aI-18
aI-13
aI-8
aI-2
aI16
aI-5
aI15
aI18
aI19
aI14
aI-15
aI20
aI17
aa(lp62
I-2
aI7
aI-12
aI9
aI-15
aI-17
aI-19
aI-9
aI1
aI1
aI14
aI16
aI8
aI17
aI0
aI7
aI0
aI0
aI-17
aI14
aa(lp63
I16
aI-12
aI11
aI4
aI9
aI1
aI20
aI8
aI20
aI10
aI7
aI14
aI-15
aI8
aI-11
aI12
aI-1
aI1
aI-11
aI-16
aa(lp64
I14
aI20
aI17
aI16
aI-18
aI-10
aI-19
aI7
aI11
aI-11
aI0
aI7
aI4
aI-11
aI-14
aI19
aI-17
aI11
aI0
aI-19
aa(lp65
I8
aI-1
aI-13
aI19
aI0
aI2
aI-5
aI-3
aI11
aI-5
aI-14
aI-5
aI-4
aI-11
aI19
aI15
aI-10
aI1
aI19
aI13
aa(lp66
I-10
aI4
aI10
aI17
aI17
aI5
aI20
aI12
aI3
aI-12
aI15
aI19
aI2
aI-10
aI18
aI10
aI-16
aI-5
aI-1
aI7
aa(lp67
I-9
aI0
aI14
aI-19
aI-19
aI4
aI11
aI14
aI14
aI-19
aI-11
aI15
aI7
aI-1
aI19
aI-14
aI-19
aI10
aI-7
aI-19
aa(lp68
I11
aI19
aI-9
aI-14
aI7
aI-13
aI-6
aI-18
aI17
aI-13
aI13
aI15
aI-2
aI-8
aI10
aI20
aI10
aI-4
aI13
aI-6
aa(lp69
I11
aI1
aI7
aI-13
aI-13
aI-6
aI19
aI15
aI-2
aI-13
aI-2
aI-4
aI12
aI17
aI18
aI7
aI3
aI-1
aI16
aI7
aa(lp70
I-11
aI-3
aI-1
aI12
aI-2
aI-11
aI-8
aI-10
aI12
aI-3
aI-19
aI-18
aI-4
aI11
aI-8
aI-12
aI-11
aI-8
aI-6
aI-19
aa(lp71
I4
aI18
aI-14
aI8
aI1
aI-13
aI-6
aI-4
aI-15
aI-20
aI-12
aI-5
aI-13
aI-9
aI11
aI-6
aI7
aI16
aI8
aI6
aa(lp72
I-12
aI11
aI5
aI-9
aI7
aI-19
aI1
aI11
aI0
aI0
aI-8
aI9
aI15
aI-2
aI-1
aI-5
aI-17
aI-6
aI-17
aI20
aa(lp73
I16
aI20
aI-12
aI14
aI-5
aI-9
aI1
aI-4
aI-10
aI18
aI3
aI15
aI-13
aI-8
aI-6
aI-16
aI8
aI6
aI7
aI-13
aa(lp74
I-11
aI2
aI-18
aI-17
aI-18
aI20
aI-3
aI-13
aI12
aI-17
aI3
aI1
aI-6
aI12
aI9
aI-20
aI-12
aI-3
aI7
aI-10
aa(lp75
I17
aI18
aI0
aI-6
aI-7
aI5
aI-12
aI-14
aI-7
aI6
aI20
aI6
aI12
aI9
aI0
aI-11
aI-6
aI19
aI-6
aI0
aa(lp76
I-2
aI3
aI5
aI-16
aI-9
aI-11
aI6
aI18
aI-5
aI5
aI19
aI-19
aI-18
aI2
aI-4
aI-1
aI11
aI19
aI9
aI1
aa(lp77
I-8
aI-3
aI-2
aI7
aI-19
aI7
aI-11
aI15
aI2
aI8
aI15
aI10
aI-2
aI6
aI-20
aI7
aI-20
aI15
aI-5
aI-17
aa(lp78
I14
aI1
aI15
aI17
aI-10
aI20
aI-14
aI-13
aI-15
aI9
aI10
aI5
aI13
aI-7
aI8
aI19
aI7
aI11
aI-15
aI2
aa(lp79
I4
aI-4
aI-8
aI17
aI-11
aI-20
aI16
aI20
aI-10
aI17
aI-4
aI-10
aI18
aI-18
aI14
aI-8
aI-2
aI3
aI6
aI10
aa(lp80
I-10
aI-11
aI16
aI13
aI18
aI2
aI-11
aI-2
aI0
aI-20
aI-11
aI-2
aI-4
aI18
aI17
aI7
aI0
aI-1
aI-7
aI-14
aa(lp81
I18
aI-16
aI-19
aI-8
aI-1
aI2
aI-3
aI0
aI-19
aI-5
aI8
aI-6
aI-8
aI4
aI2
aI-19
aI-5
aI6
aI-20
aI0
aa(lp82
I-5
aI-20
aI-15
aI-20
aI-5
aI-20
aI7
aI-7
aI-15
aI11
aI14
aI15
aI6
aI17
aI5
aI-13
aI0
aI16
aI15
aI10
aa(lp83
I-7
aI0
aI-10
aI7
aI0
aI-5
aI20
aI11
aI-2
aI-20
aI-14
aI-5
aI-12
aI12
aI-3
aI12
aI-16
aI4
aI12
aI-17
aa(lp84
I-6
aI-16
aI-6
aI0
aI-11
aI4
aI-1
aI6
aI-17
aI10
aI-17
aI1
aI-14
aI3
aI-18
aI12
aI-3
aI8
aI20
aI14
aa(lp85
I-1
aI-4
aI-6
aI16
aI-13
aI-6
aI-17
aI-9
aI-16
aI6
aI-12
aI3
aI19
aI-12
aI14
aI-9
aI-16
aI-3
aI-8
aI-13
aa(lp86
I-9
aI4
aI9
aI6
aI-16
aI7
aI0
aI0
aI1
aI3
aI20
aI-6
aI-17
aI8
aI-10
aI1
aI10
aI-1
aI-4
aI-15
aa(lp87
I18
aI-5
aI13
aI-8
aI6
aI-18
aI-3
aI13
aI2
aI19
aI-4
aI15
aI7
aI12
aI3
aI13
aI12
aI-14
aI-20
aI-13
aa(lp88
I-8
aI-2
aI-12
aI-16
aI10
aI8
aI-8
aI-12
aI-12
aI0
aI-17
aI10
aI16
aI-18
aI1
aI-18
aI-9
aI5
aI15
aI5
aa(lp89
I6
aI18
aI-10
aI-10
aI-9
aI7
aI2
aI-9
aI-6
aI18
aI7
aI-12
aI-17
aI-1
aI16
aI-15
aI-19
aI-14
aI-20
aI-19
aa(lp90
I5
aI9
aI17
aI18
aI-12
aI18
aI4
aI-19
aI-20
aI-9
aI9
aI4
aI9
aI-9
aI3
aI14
aI4
aI18
aI-10
aI7
aa(lp91
I-13
aI12
aI4
aI-2
aI-12
aI8
aI-7
aI-6
aI5
aI-9
aI9
aI3
aI12
aI-18
aI-19
aI9
aI-13
aI-16
aI17
aI15
aa(lp92
I-3
aI3
aI-5
aI-5
aI-15
aI-12
aI-1
aI-17
aI6
aI16
aI12
aI8
aI-15
aI3
aI11
aI-16
aI9
aI-19
aI-14
aI10
aa(lp93
I-15
aI7
aI16
aI-2
aI-20
aI14
aI-14
aI-8
aI11
aI-3
aI17
aI-19
aI-20
aI-16
aI-17
aI15
aI-7
aI-3
aI-17
aI-20
aa(lp94
I0
aI7
aI-14
aI-18
aI16
aI-9
aI-1
aI15
aI10
aI16
aI4
aI14
aI-9
aI1
aI-20
aI-6
aI-3
aI4
aI-1
aI-16
aa(lp95
I-4
aI-3
aI-19
aI1
aI-8
aI15
aI14
aI-3
aI-4
aI0
aI-14
aI-7
aI17
aI-4
aI-4
aI12
aI4
aI18
aI16
aI3
aa(lp96
I-1
aI19
aI18
aI-6
aI-7
aI-19
aI0
aI8
aI2
aI-13
aI0
aI-20
aI9
aI-2
aI6
aI-16
aI-18
aI18
aI18
aI18
aa(lp97
I-8
aI14
aI-13
aI-15
aI15
aI-11
aI10
aI20
aI10
aI-9
aI5
aI3
aI14
aI17
aI11
aI9
aI17
aI-7
aI-2
aI-20
aa(lp98
I-12
aI-14
aI19
aI-19
aI-1
aI1
aI13
aI15
aI-17
aI6
aI1
aI9
aI-14
aI-15
aI-10
aI-20
aI-12
aI10
aI-3
aI11
aa(lp99
I-2
aI-1
aI-6
aI8
aI-18
aI7
aI-20
aI6
aI10
aI-9
aI2
aI3
aI3
aI20
aI14
aI8
aI-13
aI-7
aI-17
aI16
aa(lp100
I0
aI-20
aI7
aI-19
aI19
aI4
aI12
aI14
aI7
aI-19
aI-6
aI-10
aI3
aI-19
aI20
aI-12
aI-7
aI3
aI-5
aI2
aa.