(lp0
(lp1
I6
aI-5
aI23
aI-6
aI-7
aI6
aI19
aI10
aI-12
aI-7
aI-6
aI7
aI8
aI19
aI-27
aI7
aI1
aI-16
aI-28
aI5
aI21
aI-8
aI16
aI-29
aI-15
aI23
aI18
aI12
aI-29
aI-17
aa(lp2
I-10
aI1
aI23
aI8
aI22
aI4
aI4
aI7
aI29
aI-16
aI-7
aI12
aI-8
aI22
aI5
aI-24
aI9
aI21
aI27
aI-10
aI12
aI25
aI22
aI10
aI-30
aI24
aI-24
aI23
aI-25
aI-11
aa(lp3
I14
aI-22
aI15
aI28
aI10
aI17
aI-7
aI-28
aI8
aI-28
aI-20
aI16
aI2
aI15
aI-9
aI17
aI28
aI7
aI-10
aI24
aI-20
aI-19
aI27
aI25
aI-21
aI-25
aI14
aI-15
aI25
aI-18
aa(lp4
I15
aI30
aI-7
aI24
aI23
aI-24
aI18
aI-6
aI-14
aI30
aI-22
aI25
aI-13
aI-11
aI-9
aI-25
aI12
aI-2
aI18
aI-25
aI-3
aI-25
aI-11
aI-6
aI-22
aI-26
aI-27
aI-1
aI29
aI-24
aa(lp5
I-8
aI-20
aI-12
aI0
aI-19
aI20
aI22
aI21
aI-23
aI11
aI-5
aI-23
aI-13
aI24
aI-4
aI8
aI19
aI21
aI0
aI-11
aI23
aI14
aI-3
aI-16
aI29
aI-12
aI7
aI-21
aI-30
aI7
aa(lp6
I9
aI-18
aI8
aI9
aI17
aI10
aI-30
aI-25
aI28
aI2
aI-6
aI-3
aI-5
aI-18
aI-10
aI-9
aI-30
aI16
aI-19
aI-17
aI6
aI-24
aI-6
aI9
aI17
aI27
aI2
aI-28
aI6
aI-1
aa(lp7
I29
aI-25
aI25
aI-29
aI-12
aI10
aI-28
aI16
aI26
aI-4
aI12
aI-28
aI26
aI13
aI12
aI-29
aI25
aI17
aI9
aI-18
aI21
aI13
aI-14
aI8
aI-20
aI20
aI-9
aI17
aI27
aI4
aa(lp8
I-29
aI23
aI-18
aI-25
aI5
aI-24
aI-19
aI19
aI-18
aI-11
aI30
aI9
aI1
aI-5
aI6
aI30
aI-12
aI9
aI4
aI-23
aI25
aI25
aI-8
aI-9
aI-14
aI2
aI28
aI-28
aI7
aI-7
aa(lp9
I16
aI-15
aI-8
aI23
aI-8
aI-7
aI27
aI1
aI19
aI14
aI-18
aI9
aI-4
aI2
aI18
aI30
aI3
aI9
aI-8
aI10
aI-3
aI-5
aI29
aI-12
aI-29
aI5
aI-15
aI8
aI-1
aI-23
aa(lp10
I-12
aI5
aI19
aI28
aI11
aI-8
aI-13
aI-23
aI20
aI-12
aI21
aI2
aI27
aI4
aI-4
aI29
aI-7
aI8
aI12
aI12
aI-23
aI-30
aI-1
aI-13
aI13
aI1
aI13
aI-10
aI8
aI17
aa(lp11
I-30
aI12
aI14
aI9
aI-20
aI2
aI13
aI10
aI16
aI-20
aI21
aI1
aI-21
aI13
aI7
aI-3
aI18
aI-8
aI18
aI-19
aI12
aI16
aI26
aI-28
aI-21
aI23
aI-5
aI-20
aI9
aI1
aa(lp12
I0
aI24
aI1
aI10
aI30
aI16
aI4
aI6
aI22
aI-14
aI-17
aI20
aI-1
aI4
aI-22
aI13
aI21
aI-18
aI-2
aI0
aI22
aI11
aI-13
aI-11
aI-23
aI18
aI-11
aI0
aI-13
aI7
aa(lp13
I-3
aI-25
aI25
aI-14
aI8
aI21
aI3
aI-25
aI11
aI-20
aI-3
aI15
aI-8
aI-27
aI-5
aI-23
aI-3
aI-29
aI9
aI3
aI-25
aI25
aI21
aI9
aI-22
aI7
aI-23
aI-16
aI2
aI-17
aa(lp14
I28
aI-14
aI30
aI-25
aI-10
aI-13
aI-20
aI6
aI3
aI-8
aI26
aI-2
aI18
aI-19
aI-28
aI-25
aI-21
aI3
aI-11
aI-21
aI21
aI23
aI7
aI13
aI-12
aI-8
aI15
aI3
aI-26
aI10
aa(lp15
I5
aI-19
aI7
aI-29
aI6
aI-1
aI25
aI21
aI4
aI-17
aI6
aI28
aI0
aI-22
aI-6
aI24
aI28
aI18
aI12
aI12
aI-6
aI-25
aI28
aI-20
aI0
aI18
aI-22
aI-2
aI23
aI2
aa(lp16
I7
aI-12
aI-9
aI-25
aI17
aI-26
aI22
aI-30
aI3
aI-22
aI25
aI7
aI-26
aI13
aI-24
aI-15
aI18
aI-2
aI-4
aI-16
aI-30
aI-21
aI-26
aI-11
aI-28
aI15
aI20
aI-27
aI26
aI1
aa(lp17
I29
aI3
aI22
aI-16
aI-29
aI-11
aI-6
aI-25
aI-8
aI-7
aI6
aI20
aI-15
aI-18
aI23
aI-15
aI-23
aI-17
aI-23
aI-22
aI9
aI20
aI15
aI-9
aI-2
aI29
aI25
aI-22
aI21
aI-13
aa(lp18
I10
aI8
aI-6
aI-8
aI19
aI10
aI-6
aI-1
aI2
aI-11
aI29
aI-5
aI24
aI19
aI-4
aI14
aI-30
aI0
aI-14
aI18
aI20
aI29
aI-20
aI-28
aI-5
aI-24
aI-19
aI15
aI21
aI17
aa(lp19
I-7
aI1
aI21
aI3
aI18
aI-7
aI23
aI0
aI26
aI-10
aI4
aI-1
aI10
aI-11
aI17
aI-16
aI-24
aI9
aI-16
aI11
aI26
aI-11
aI-12
aI-24
aI-1
aI2
aI6
aI-28
aI25
aI-2
aa(lp20
I18
aI8
aI24
aI9
aI-8
aI8
aI21
aI-1
aI7
aI-5
aI9
aI9
aI26
aI-14
aI-21
aI-28
aI30
aI-25
aI-25
aI-30
aI-12
aI-16
aI-29
aI-12
aI11
aI3
aI27
aI21
aI5
aI-4
aa(lp21
I30
aI-24
aI25
aI-28
aI-8
aI-27
aI28
aI16
aI4
aI-5
aI26
aI-25
aI-27
aI-6
aI29
aI3
aI26
aI22
aI-6
aI-1
aI10
aI-16
aI11
aI15
aI-10
aI3
aI-8
aI-3
aI6
aI-24
aa(lp22
I28
aI-18
aI12
aI-27
aI-21
aI26
aI-29
aI-27
aI17
aI-1
aI20
aI-6
aI9
aI-21
aI3
aI-12
aI-11
aI-30
aI-18
aI14
aI-23
aI10
aI-30
aI30
aI-6
aI18
aI-30
aI-24
aI11
aI-19
aa(lp23
I-3
aI-19
aI-18
aI-4
aI-17
aI-9
aI-4
aI-24
aI-8
aI-5
aI-3
aI-23
aI15
aI-9
aI-29
aI-9
aI22
aI30
aI-19
aI26
aI-12
aI18
aI-8
aI28
aI18
aI22
aI30
aI13
aI0
aI0
aa(lp24
I-15
aI14
aI19
aI-24
aI-15
aI19
aI1
aI12
aI-28
aI23
aI-6
aI-20
aI-17
aI17
aI18
aI-26
aI-20
aI-14
aI-11
aI-17
aI-23
aI-25
aI-10
aI12
aI-1
aI26
aI17
aI-9
aI-13
aI-12
aa(lp25
I-16
aI9
aI24
aI-10
aI5
aI-26
aI21
aI-21
aI23
aI9
aI13
aI17
aI5
aI5
aI24
aI-28
aI-19
aI3
aI11
aI17
aI30
aI5
aI3
aI28
aI14
aI17
aI-15
aI-21
aI24
aI-13
aa(lp26
I27
aI6
aI11
aI-30
aI1
aI4
aI11
aI-12
aI-7
aI-15
aI15
aI30
aI-21
aI-21
aI16
aI-10
aI-8
aI-3
aI-19
aI-17
aI-30
aI25
aI-27
aI8
aI-27
aI-3
aI-27
aI-26
aI-2
aI19
aa(lp27
I-30
aI-18
aI9
aI16
aI16
aI-18
aI-28
aI9
aI-10
aI-11
aI10
aI-26
aI-7
aI28
aI-30
aI-2
aI-3
aI-23
aI29
aI13
aI16
aI-12
aI-16
aI-22
aI29
aI0
aI-29
aI2
aI0
aI-21
aa(lp28
I0
aI-22
aI-20
aI16
aI-10
aI23
aI-4
aI-2
aI-29
aI-4
aI-11
aI17
aI30
aI-16
aI22
aI-25
aI6
aI-12
aI-16
aI-15
aI1
aI-25
aI-10
aI7
aI-29
aI9
aI-25
aI-18
aI2
aI-16
aa(lp29
I2
aI28
aI14
aI-15
aI6
aI8
aI-23
aI2
aI19
aI-24
aI4
aI-22
aI-25
aI0
aI30
aI-17
aI-16
aI-26
aI-30
aI-4
aI25
aI4
aI22
aI1
aI14
aI-15
aI17
aI11
aI19
aI9
aa(lp30
I-13
aI29
aI-14
aI-12
aI19
aI1
aI19
aI-22
aI5
aI-28
aI4
aI-2
aI8
aI16
aI-9
aI7
aI-4
aI28
aI15
aI20
aI5
aI-5
aI11
aI-30
aI29
aI19
aI-1
aI6
aI-8
aI21
aa(lp31
I-13
aI-6
aI29
aI-2
aI-21
aI-25
aI9
aI-6
aI25
aI-27
aI-10
aI20
aI-14
aI-10
aI16
aI30
aI-1
aI-15
aI28
aI24
aI7
aI-16
aI30
aI0
aI5
aI11
aI-2
aI-20
aI10
aI25
aa(lp32
I15
aI24
aI0
aI30
aI28
aI4
aI-11
aI28
aI-9
aI17
aI-12
aI-10
aI-30
aI21
aI-10
aI20
aI25
aI-3
aI-5
aI25
aI13
aI-23
aI29
aI-23
aI-5
aI-11
aI13
aI-7
aI10
aI-7
aa(lp33
I30
aI-3
aI-16
aI-25
aI21
aI2
aI-14
aI24
aI4
aI10
aI22
aI10
aI8
aI-15
aI-26
aI8
aI10
aI20
aI22
aI23
aI8
aI-25
aI9
aI-6
aI-1
aI-8
aI22
aI-9
aI-1
aI-16
aa(lp34
I-18
aI-9
aI-14
aI12
aI-9
aI-26
aI-28
aI-4
aI-10
aI15
aI4
aI13
aI-8
aI-15
aI14
aI-13
aI5
aI14
aI9
aI12
aI-27
aI8
aI30
aI-9
aI-3
aI12
aI-11
aI4
aI-15
aI-6
aa(lp35
I-22
aI21
aI2
aI7
aI12
aI1
aI-11
aI-19
aI-29
aI28
aI14
aI-29
aI-16
aI18
aI-19
aI16
aI29
aI16
aI7
aI-15
aI-22
aI-29
aI1
aI-12
aI12
aI3
aI15
aI1
aI12
aI5
aa(lp36
I-16
aI18
aI-24
aI21
aI26
aI-20
aI-28
aI-29
aI13
aI8
aI23
aI0
aI27
aI-29
aI3
aI17
aI-9
aI-29
aI18
aI-13
aI15
aI-1
aI24
aI28
aI8
aI4
aI0
aI-22
aI19
aI-6
aa(lp37
I-7
aI-11
aI13
aI-2
aI-1
aI-9
aI7
aI14
aI-16
aI-22
aI-1
aI9
aI-20
aI-12
aI-18
aI22
aI-30
aI-27
aI28
aI-16
aI-3
aI-23
aI-7
aI6
aI19
aI-19
aI-25
aI-13
aI-3
aI-17
aa(lp38
I-8
aI-3
aI-18
aI-6
aI-28
aI-5
aI28
aI25
aI21
aI-7
aI21
aI8
aI20
aI-20
aI0
aI16
aI-22
aI22
aI28
aI-21
aI14
aI-19
aI-2
aI1
aI19
aI-23
aI26
aI-8
aI-19
aI3
aa(lp39
I1
aI-30
aI18
aI4
aI29
aI28
aI29
aI4
aI8
aI-14
aI-5
aI13
aI-8
aI-26
aI-17
aI7
aI-21
aI10
aI14
aI-3
aI22
aI-30
aI-24
aI16
aI5
aI-3
aI25
aI27
aI-8
aI5
aa(lp40
I4
aI15
aI-26
aI-22
aI21
aI-24
aI8
aI18
aI-3
aI0
aI-28
aI-7
aI10
aI29
aI-25
aI9
aI9
aI-30
aI0
aI5
aI21
aI9
aI-22
aI-4
aI-2
aI24
aI-22
aI20
aI7
aI-15
aa(lp41
I22
aI24
aI-15
aI-5
aI-29
aI-26
aI-28
aI-1
aI-17
aI9
aI-3
aI14
aI22
aI-7
aI-27
aI28
aI30
aI24
aI-25
aI-11
aI-9
aI2
aI13
aI-25
aI27
aI-3
aI-22
aI8
aI17
aI-9
aa(lp42
I-27
aI11
aI19
aI-14
aI16
aI14
aI22
aI17
aI-22
aI9
aI9
aI4
aI-12
aI-1
aI23
aI17
aI-5
aI-25
aI-30
aI-3
aI11
aI-5
aI-25
aI25
aI26
aI24
aI-28
aI2
aI16
aI3
aa(lp43
I-21
aI-22
aI-4
aI25
aI13
aI-12
aI-12
aI-20
aI26
aI19
aI19
aI29
aI13
aI9
aI-13
aI-17
aI-3
aI-16
aI10
aI-6
aI-15
aI-14
aI-8
aI-3
aI22
aI-22
aI-7
aI16
aI-27
aI24
aa(lp44
I27
aI10
aI-6
aI-19
aI-23
aI6
aI28
aI8
aI8
aI-25
aI-12
aI-18
aI-9
aI28
aI25
aI-9
aI-2
aI28
aI-13
aI-14
aI8
aI-29
aI21
aI22
aI5
aI-17
aI7
aI9
aI4
aI28
aa(lp45
I-1
aI-28
aI8
aI9
aI-14
aI15
aI-21
aI6
aI6
aI9
aI8
aI-22
aI4
aI-18
aI17
aI-25
aI21
aI30
aI28
aI5
aI-1
aI-22
aI-6
aI-16
aI8
aI-23
aI16
aI28
aI23
aI-23
aa(lp46
I18
aI-30
aI-9
aI-11
aI5
aI29
aI25
aI19
aI24
aI-2
aI2
aI3
aI-5
aI6
aI25
aI22
aI30
aI12
aI-28
aI-9
aI-30
aI19
aI18
aI6
aI-3
aI15
aI27
aI-14
aI-10
aI13
aa(lp47
I9
aI-22
aI-13
aI-29
aI-6
aI14
aI26
aI9
aI20
aI17
aI16
aI9
aI2
aI9
aI21
aI-16
aI-29
aI15
aI21
aI-13
aI16
aI18
aI-18
aI18
aI-8
aI10
aI-18
aI11
aI21
aI-2
aa(lp48
I-30
aI-13
aI28
aI-11
aI-10
aI19
aI-15
aI-24
aI-16
aI20
aI-27
aI30
aI-25
aI-23
aI13
aI26
aI23
aI18
aI-6
aI-27
aI23
aI20
aI-25
aI0
aI13
aI0
aI-26
aI11
aI-22
aI28
aa(lp49
I-9
aI-17
aI-8
aI-2
aI1
aI10
aI27
aI-22
aI27
aI19
aI-9
aI-3
aI16
aI-12
aI-10
aI15
aI8
aI-3
aI26
aI30
aI20
aI-16
aI-10
aI-3
aI25
aI27
aI19
aI-22
aI28
aI8
aa(lp50
I27
aI13
aI5
aI16
aI-9
aI28
aI25
aI21
aI-6
aI25
aI-14
aI19
aI25
aI22
aI11
aI-6
aI10
aI11
aI24
aI15
aI-24
aI6
aI-19
aI9
aI-23
aI11
aI14
aI-19
aI-10
aI6
aa(lp51
I23
aI18
aI-10
aI15
aI1
aI-27
aI-1
aI-8
aI24
aI-3
aI11
aI25
aI8
aI-19
aI8
aI-18
aI11
aI11
aI-2
aI23
aI7
aI-20
aI9
aI-16
aI24
aI-5
aI-11
aI-17
aI28
aI1
aa(lp52
I4
aI6
aI-8
aI-14
aI-9
aI3
aI-19
aI0
aI24
aI-17
aI15
aI5
aI29
aI1
aI-8
aI15
aI27
aI-5
aI-14
aI21
aI-16
aI-13
aI-10
aI-26
aI25
aI-23
aI-7
aI-10
aI18
aI-26
aa(lp53
I-11
aI18
aI-23
aI13
aI16
aI16
aI-3
aI23
aI-14
aI22
aI-6
aI18
aI22
aI-9
aI23
aI-29
aI-6
aI21
aI6
aI-9
aI-5
aI11
aI-13
aI-8
aI-26
aI-9
aI-29
aI8
aI21
aI12
aa(lp54
I30
aI-13
aI30
aI26
aI8
aI-20
aI12
aI13
aI0
aI14
aI-20
aI-18
aI24
aI-28
aI30
aI14
aI16
aI15
aI-5
aI-22
aI25
aI14
aI8
aI-11
aI-16
aI-26
aI3
aI20
aI16
aI-19
aa(lp55
I-30
aI16
aI-2
aI-20
aI19
aI-2
aI-28
aI3
aI8
aI-6
aI-24
aI-30
aI7
aI-1
aI-13
aI1
aI-7
aI3
aI2
aI12
aI-25
aI20
aI-25
aI-20
aI16
aI-11
aI-8
aI-3
aI20
aI6
aa(lp56
I-17
aI14
aI-14
aI26
aI-23
aI30
aI-15
aI-7
aI-24
aI-8
aI30
aI-9
aI17
aI12
aI19
aI5
aI23
aI18
aI-24
aI-24
aI-5
aI6
aI-20
aI-24
aI3
aI-5
aI19
aI-17
aI6
aI-13
aa(lp57
I-23
aI-6
aI-21
aI-2
aI11
aI-6
aI29
aI0
aI20
aI1
aI6
aI5
aI30
aI-2
aI-19
aI-22
aI-22
aI7
aI-13
aI23
aI2
aI5
aI-27
aI-27
aI4
aI-24
aI28
aI13
aI7
aI-29
aa(lp58
I-5
aI-10
aI-7
aI25
aI14
aI20
aI-16
aI25
aI-27
aI-7
aI-10
aI15
aI-16
aI-28
aI19
aI0
aI30
aI-7
aI-19
aI14
aI-13
aI-26
aI0
aI26
aI-24
aI21
aI25
aI-7
aI28
aI23
aa(lp59
I-2
aI16
aI-19
aI28
aI11
aI29
aI-9
aI-10
aI27
aI16
aI8
aI-28
aI24
aI-28
aI22
aI-3
aI2
aI-6
aI11
aI-5
aI-7
aI-25
aI-17
aI18
aI-15
aI20
aI-20
aI-27
aI-7
aI29
aa(lp60
I-29
aI-15
aI4
aI6
aI-16
aI19
aI-2
aI18
aI20
aI-17
aI-25
aI-3
aI-5
aI-10
aI-28
aI-12
aI2
aI3
aI-2
aI18
aI9
aI-4
aI-4
aI16
aI25
aI-16
aI9
aI-3
aI-5
aI-5
aa(lp61
I24
aI-30
aI-5
aI14
aI-17
aI-6
aI-18
aI24
aI26
aI27
aI-3
aI1
aI27
aI16
aI22
aI-14
aI-3
aI10
aI29
aI-22
aI1
aI28
aI19
aI20
aI-30
aI-27
aI11
aI29
aI21
aI-6
aa(lp62
I-18
aI-28
aI-12
aI-15
aI0
aI-22
aI0
aI10
aI-26
aI-26
aI-10
aI7
aI10
aI7
aI-20
aI-5
aI10
aI-12
aI-12
aI-29
aI8
aI8
aI-30
aI-29
aI21
aI27
aI3
aI15
aI-17
aI15
aa(lp63
I20
aI9
aI-25
aI20
aI-4
aI-17
aI17
aI6
aI-6
aI-2
aI-16
aI-21
aI1
aI-18
aI-14
aI-4
aI1
aI16
aI-27
aI-6
aI13
aI-20
aI-3
aI7
aI28
aI-20
aI-28
aI17
aI-3
aI-15
aa(lp64
I-9
aI7
aI16
aI19
aI14
aI9
aI-22
aI-29
aI9
aI-28
aI19
aI24
aI21
aI-25
aI-21
aI21
aI22
aI6
aI17
aI19
aI17
aI12
aI-25
aI-2
aI14
aI0
aI9
aI-10
aI7
aI-1
aa(lp65
I-3
aI16
aI-1
aI23
aI26
aI16
aI-1
aI15
aI9
aI-25
aI8
aI-11
aI4
aI27
aI1
aI10
aI-6
aI11
aI-9
aI-29
aI19
aI-16
aI-7
aI-1
aI-10
aI-15
aI21
aI26
aI-5
aI17
aa(lp66
I11
aI16
aI8
aI-26
aI-8
aI20
aI-21
aI-8
aI1
aI14
aI-30
aI26
aI-8
aI-29
aI-27
aI22
aI-17
aI-21
aI17
aI18
aI-8
aI-10
aI0
aI-5
aI-29
aI-9
aI-30
aI19
aI-11
aI-2
aa(lp67
I25
aI-25
aI-18
aI15
aI-8
aI12
aI30
aI8
aI-23
aI-19
aI-29
aI-13
aI29
aI-20
aI10
aI3
aI-18
aI-28
aI12
aI8
aI21
aI-25
aI-17
aI29
aI-6
aI14
aI-23
aI22
aI19
aI-29
aa(lp68
I-8
aI10
aI-17
aI18
aI-12
aI20
aI6
aI-23
aI18
aI-15
aI-20
aI24
aI-26
aI-7
aI-9
aI-30
aI-8
aI13
aI29
aI24
aI5
aI-14
aI-29
aI26
aI8
aI-18
aI15
aI-25
aI-2
aI-13
aa(lp69
I-15
aI6
aI11
aI9
aI-11
aI-29
aI1
aI24
aI26
aI-8
aI-14
aI20
aI-24
aI20
aI-20
aI-1
aI20
aI6
aI29
aI25
aI27
aI12
aI-27
aI8
aI-1
aI-26
aI-22
aI7
aI21
aI30
aa(lp70
I-1
aI21
aI-16
aI30
aI12
aI9
aI4
aI-19
aI7
aI-12
aI-10
aI28
aI-26
aI20
aI22
aI15
aI-3
aI23
aI29
aI8
aI-16
aI23
aI-25
aI0
aI-9
aI0
aI-29
aI-22
aI21
aI20
aa(lp71
I10
aI28
aI0
aI-23
aI-30
aI20
aI5
aI-27
aI25
aI-10
aI-17
aI29
aI-11
aI13
aI12
aI10
aI-6
aI-13
aI7
aI-30
aI-30
aI-21
aI15
aI20
aI14
aI25
aI0
aI4
aI11
aI-6
aa(lp72
I-21
aI-14
aI-20
aI22
aI-22
aI2
aI-9
aI27
aI-6
aI4
aI0
aI12
aI-11
aI0
aI-10
aI-13
aI-29
aI-6
aI6
aI-30
aI21
aI13
aI-10
aI-4
aI27
aI-1
aI29
aI16
aI1
aI27
aa(lp73
I-1
aI-16
aI30
aI-4
aI26
aI-20
aI12
aI29
aI15
aI-30
aI14
aI-23
aI-16
aI-8
aI9
aI6
aI-18
aI-12
aI-29
aI26
aI14
aI-23
aI27
aI26
aI-15
aI-9
aI29
aI-4
aI-29
aI22
aa(lp74
I21
aI1
aI11
aI9
aI19
aI5
aI13
aI-29
aI24
aI1
aI0
aI27
aI-30
aI-8
aI-27
aI-24
aI11
aI9
aI18
aI4
aI-24
aI-10
aI-20
aI-3
aI28
aI24
aI29
aI-11
aI7
aI-14
aa(lp75
I-2
aI9
aI-10
aI-29
aI27
aI-6
aI24
aI-18
aI25
aI-3
aI-24
aI-24
aI12
aI-19
aI25
aI-10
aI18
aI24
aI-20
aI24
aI-24
aI22
aI-5
aI0
aI-17
aI4
aI26
aI-22
aI-24
aI23
aa(lp76
I3
aI-17
aI-9
aI25
aI16
aI-22
aI20
aI-30
aI24
aI20
aI-16
aI-29
aI-6
aI3
aI5
aI20
aI10
aI10
aI-24
aI-26
aI-15
aI3
aI23
aI26
aI6
aI23
aI-7
aI4
aI-8
aI-26
aa(lp77
I0
aI-9
aI19
aI-10
aI-25
aI7
aI30
aI-12
aI13
aI-4
aI-23
aI-14
aI-27
aI-9
aI-10
aI-4
aI-30
aI-12
aI-1
aI17
aI-12
aI17
aI12
aI-11
aI-25
aI22
aI-30
aI28
aI-4
aI-5
aa(lp78
I-6
aI-18
aI-23
aI3
aI-4
aI-10
aI-23
aI-10
aI15
aI29
aI-14
aI8
aI-6
aI-9
aI5
aI10
aI-12
aI0
aI-5
aI-24
aI-29
aI-19
aI19
aI9
aI29
aI-8
aI19
aI7
aI-2
aI-13
aa(lp79
I-23
aI11
aI9
aI-29
aI-22
aI16
aI19
aI-12
aI-2
aI14
aI-29
aI-22
aI-2
aI23
aI-4
aI7
aI-13
aI2
aI-2
aI-2
aI-20
aI-11
aI28
aI7
aI-22
aI-16
aI5
aI6
aI0
aI12
aa(lp80
I15
aI3
aI-25
aI2
aI7
aI-27
aI-3
aI28
aI0
aI12
aI14
aI24
aI15
aI-9
aI-7
aI26
aI20
aI-26
aI-10
aI5
aI18
aI11
aI-5
aI-13
aI-29
aI13
aI1
aI30
aI22
aI-1
aa(lp81
I-11
aI-9
aI3
aI-23
aI17
aI-25
aI-12
aI2
aI12
aI-23
aI14
aI8
aI15
aI-19
aI10
aI22
aI-15
aI10
aI-27
aI14
aI-23
aI8
aI-23
aI-14
aI-17
aI21
aI6
aI17
aI23
aI-6
aa(lp82
I6
aI-25
aI12
aI-30
aI-28
aI14
aI10
aI-12
aI21
aI-1
aI-23
aI25
aI-15
aI10
aI-1
aI-19
aI10
aI-2
aI3
aI12
aI26
aI27
aI-22
aI-9
aI25
aI25
aI13
aI-6
aI-13
aI23
aa(lp83
I17
aI13
aI-15
aI7
aI-13
aI-7
aI13
aI30
aI-2
aI24
aI3
aI-18
aI-15
aI5
aI30
aI0
aI-8
aI-28
aI-2
aI-25
aI16
aI-23
aI-10
aI-29
aI-15
aI17
aI-9
aI1
aI-24
aI3
aa(lp84
I17
aI-14
aI7
aI25
aI26
aI-24
aI-10
aI-1
aI10
aI-9
aI-28
aI3
aI14
aI19
aI-9
aI-14
aI4
aI-18
aI30
aI-27
aI-21
aI-3
aI-19
aI4
aI11
aI18
aI-13
aI-16
aI14
aI15
aa(lp85
I-23
aI-16
aI-5
aI-26
aI30
aI10
aI21
aI-8
aI-18
aI6
aI16
aI13
aI-6
aI6
aI25
aI22
aI15
aI21
aI9
aI0
aI0
aI12
aI-19
aI-24
aI-29
aI7
aI29
aI4
aI3
aI-2
aa(lp86
I-29
aI-26
aI22
aI-23
aI13
aI0
aI26
aI30
aI-7
aI16
aI13
aI9
aI24
aI18
aI-14
aI25
aI-22
aI0
aI7
aI6
aI-21
aI26
aI26
aI-21
aI7
aI-7
aI7
aI16
aI14
aI30
aa(lp87
I24
aI-15
aI-28
aI5
aI-2
aI-29
aI-3
aI18
aI-13
aI18
aI6
aI10
aI-16
aI-6
aI-2
aI-9
aI7
aI-15
aI-21
aI-14
aI3
aI-26
aI21
aI-8
aI-8
aI-14
aI-12
aI3
aI20
aI-18
aa(lp88
I-17
aI1
aI-8
aI28
aI-29
aI-12
aI-30
aI30
aI-18
aI24
aI-27
aI4
aI15
aI-27
aI-11
aI0
aI16
aI-11
aI5
aI-24
aI0
aI-19
aI-15
aI30
aI-12
aI27
aI-7
aI11
aI-25
aI-15
aa(lp89
I1
aI10
aI30
aI-8
aI-6
aI-12
aI-10
aI28
aI-18
aI13
aI-24
aI-12
aI0
aI9
aI23
aI27
aI-20
aI7
aI-4
aI3
aI-22
aI-18
aI-15
aI-26
aI26
aI8
aI18
aI-29
aI5
aI21
aa(lp90
I5
aI-21
aI-3
aI13
aI2
aI30
aI6
aI10
aI-16
aI5
aI-13
aI-1
aI27
aI-19
aI7
aI1
aI19
aI-27
aI-25
aI17
aI29
aI-19
aI7
aI-25
aI-15
aI29
aI-30
aI-26
aI22
aI21
aa(lp91
I-18
aI-15
aI27
aI10
aI0
aI0
aI-16
aI-7
aI-13
aI-3
aI-1
aI30
aI-14
aI-14
aI-11
aI-17
aI25
aI14
aI-29
aI-28
aI14
aI14
aI14
aI-9
aI-25
aI-8
aI-19
aI-7
aI-8
aI4
aa(lp92
I25
aI18
aI24
aI15
aI25
aI-9
aI-13
aI-2
aI-20
aI22
aI7
aI-9
aI-21
aI14
aI-1
aI-19
aI-17
aI-13
aI19
aI-23
aI7
aI-1
aI9
aI17
aI-16
aI-5
aI14
aI-9
aI0
aI-26
aa(lp93
I-14
aI3
aI7
aI-23
aI-9
aI15
aI-4
aI30
aI26
aI29
aI-4
aI12
aI-22
aI4
aI3
aI-1
aI-14
aI17
aI12
aI20
aI-5
aI9
aI-22
aI14
aI-7
aI20
aI-8
aI-2
aI-17
aI-23
aa(lp94
I16
aI14
aI27
aI25
aI16
aI29
aI-14
aI11
aI-20
aI1
aI11
aI30
aI-3
aI-18
aI0
aI2
aI15
aI0
aI-4
aI5
aI-20
aI19
aI-12
aI16
aI-20
aI14
aI-21
aI-19
aI-26
aI-12
aa(lp95
I-5
aI13
aI-25
aI23
aI-16
aI24
aI17
aI-2
aI29
aI20
aI11
aI27
aI1
aI-19
aI0
aI9
aI27
aI-2
aI10
aI28
aI-1
aI30
aI-19
aI3
aI-5
aI24
aI9
aI27
aI-22
aI4
aa(lp96
I-5
aI-6
aI-25
aI25
aI-22
aI-26
aI-13
aI-24
aI-18
aI-7
aI-24
aI-1
aI-21
aI27
aI-27
aI5
aI-6
aI17
aI15
aI-23
aI-19
aI-29
aI23
aI9
aI-12
aI-26
aI27
aI10
aI13
aI13
aa(lp97
I13
aI-11
aI-29
aI-5
aI29
aI-22
aI26
aI-18
aI-24
aI25
aI22
aI23
aI12
aI-14
aI-4
aI-25
aI-13
aI-18
aI27
aI-14
aI-27
aI23
aI30
aI25
aI22
aI26
aI-2
aI14
aI-25
aI-25
aa(lp98
I27
aI28
aI-14
aI19
aI-29
aI3
aI12
aI-30
aI22
aI-15
aI-2
aI-26
aI10
aI13
aI28
aI0
aI29
aI22
aI0
aI-4
aI-20
aI8
aI25
aI-22
aI4
aI26
aI23
aI-5
aI-25
aI-7
aa(lp99
I-15
aI3
aI15
aI9
aI13
aI14
aI29
aI27
aI10
aI4
aI28
aI24
aI14
aI16
aI-28
aI-7
aI-26
aI-5
aI-20
aI20
aI-13
aI-21
aI-27
aI-22
aI11
aI-30
aI-9
aI-21
aI-10
aI-1
aa(lp100
I10
aI-15
aI25
aI15
aI-3
aI27
aI-21
aI10
aI12
aI-15
aI15
aI10
aI-27
aI-25
aI24
aI-14
aI21
aI-28
aI23
aI16
aI5
aI-12
aI2
aI-16
aI-24
aI1
aI30
aI0
aI-30
aI25
aa.