(lp0
(lp1
I-35
aI13
aI-23
aI20
aI17
aI12
aI30
aI19
aI-32
aI-2
aI-13
aI34
aI2
aI18
aI8
aI27
aI22
aI-37
aI26
aI16
aI-31
aI-2
aI28
aI-16
aI21
aI-5
aI-23
aI1
aI32
aI-2
aI34
aI-29
aI26
aI-35
aI15
aI38
aI5
aI29
aI26
aI-24
aa(lp2
I-6
aI-9
aI40
aI15
aI18
aI-20
aI35
aI-21
aI32
aI24
aI-34
aI21
aI-35
aI-4
aI6
aI-31
aI33
aI-9
aI7
aI6
aI29
aI4
aI-10
aI-18
aI-3
aI-37
aI10
aI-28
aI-25
aI9
aI-29
aI-10
aI-18
aI33
aI-6
aI-35
aI-30
aI-21
aI-24
aI-29
aa(lp3
I40
aI-13
aI-27
aI-27
aI-20
aI-32
aI-31
aI24
aI20
aI-14
aI-39
aI36
aI-19
aI-2
aI29
aI-10
aI-34
aI32
aI27
aI-29
aI-13
aI-14
aI-37
aI5
aI-6
aI-28
aI16
aI0
aI-30
aI-18
aI-27
aI17
aI27
aI32
aI-25
aI-26
aI31
aI29
aI24
aI-12
aa(lp4
I-36
aI-12
aI34
aI-38
aI28
aI-21
aI-9
aI20
aI13
aI34
aI-36
aI20
aI40
aI-39
aI24
aI8
aI-29
aI-39
aI-35
aI-21
aI-38
aI-14
aI22
aI-36
aI0
aI8
aI18
aI-2
aI-11
aI6
aI36
aI-14
aI17
aI18
aI-7
aI8
aI25
aI23
aI-29
aI36
aa(lp5
I-33
aI0
aI33
aI24
aI31
aI5
aI-21
aI24
aI-23
aI32
aI3
aI9
aI-21
aI11
aI-24
aI8
aI24
aI-14
aI32
aI-29
aI23
aI-15
aI15
aI34
aI-6
aI19
aI-33
aI21
aI7
aI-16
aI-23
aI-25
aI35
aI4
aI13
aI28
aI32
aI9
aI38
aI-13
aa(lp6
I31
aI33
aI-39
aI4
aI0
aI20
aI34
aI-13
aI38
aI-9
aI3
aI21
aI3
aI-12
aI-3
aI-37
aI14
aI12
aI18
aI3
aI7
aI14
aI-30
aI38
aI5
aI-2
aI31
aI-13
aI-19
aI14
aI40
aI-2
aI40
aI25
aI-10
aI8
aI-22
aI11
aI-8
aI-13
aa(lp7
I15
aI39
aI-29
aI-16
aI-30
aI40
aI34
aI-13
aI-2
aI-1
aI-2
aI-17
aI-28
aI-16
aI8
aI-3
aI26
aI26
aI-33
aI-12
aI6
aI3
aI-28
aI9
aI-3
aI-7
aI-21
aI8
aI-20
aI-26
aI34
aI30
aI-37
aI35
aI18
aI-6
aI-9
aI-26
aI35
aI30
aa(lp8
I23
aI17
aI11
aI-9
aI3
aI40
aI-12
aI27
aI27
aI-33
aI-5
aI-38
aI-31
aI14
aI24
aI18
aI39
aI-33
aI-3
aI-8
aI34
aI28
aI3
aI-33
aI26
aI18
aI-19
aI-4
aI-4
aI-39
aI24
aI-16
aI-25
aI-19
aI13
aI5
aI-5
aI-5
aI6
aI-29
aa(lp9
I23
aI4
aI-35
aI32
aI-14
aI30
aI-30
aI29
aI-3
aI1
aI32
aI-26
aI-39
aI-12
aI-23
aI27
aI-18
aI-31
aI30
aI6
aI18
aI-24
aI26
aI-6
aI15
aI1
aI17
aI32
aI-36
aI-36
aI-26
aI-18
aI-10
aI19
aI-39
aI11
aI-24
aI0
aI-13
aI-20
aa(lp10
I28
aI39
aI36
aI39
aI39
aI12
aI11
aI-5
aI25
aI27
aI-34
aI-21
aI32
aI39
aI-40
aI12
aI22
aI23
aI22
aI9
aI24
aI-24
aI1
aI4
aI-12
aI26
aI11
aI-7
aI26
aI23
aI-18
aI-3
aI6
aI-15
aI29
aI-4
aI37
aI-6
aI-20
aI-13
aa(lp11
I-27
aI-22
aI-24
aI-22
aI31
aI25
aI16
aI-17
aI-2
aI-31
aI-23
aI-12
aI-15
aI-35
aI25
aI33
aI16
aI-30
aI17
aI21
aI33
aI32
aI-7
aI-25
aI31
aI-17
aI-10
aI3
aI-9
aI-5
aI-33
aI-30
aI1
aI-15
aI30
aI6
aI-31
aI38
aI24
aI12
aa(lp12
I-20
aI-27
aI15
aI11
aI29
aI29
aI-26
aI-15
aI-12
aI27
aI-38
aI3
aI35
aI20
aI-26
aI-32
aI2
aI40
aI-28
aI37
aI-31
aI28
aI16
aI25
aI23
aI-29
aI26
aI-37
aI40
aI20
aI3
aI17
aI-32
aI19
aI-6
aI15
aI-37
aI-20
aI2
aI1
aa(lp13
I-13
aI-26
aI-33
aI-28
aI22
aI4
aI13
aI36
aI23
aI9
aI-26
aI-21
aI-39
aI12
aI10
aI20
aI3
aI-12
aI35
aI34
aI8
aI31
aI12
aI-10
aI-30
aI5
aI19
aI3
aI32
aI-13
aI-29
aI33
aI-37
aI-29
aI16
aI32
aI20
aI-12
aI-5
aI18
aa(lp14
I-3
aI-20
aI-8
aI-27
aI10
aI-22
aI10
aI-6
aI29
aI29
aI39
aI13
aI16
aI-35
aI-18
aI-22
aI13
aI32
aI-8
aI5
aI-25
aI15
aI27
aI-40
aI17
aI-7
aI-7
aI-22
aI2
aI22
aI-12
aI-17
aI33
aI-4
aI-20
aI3
aI-40
aI-13
aI5
aI-16
aa(lp15
I23
aI-25
aI23
aI-29
aI-15
aI14
aI-39
aI7
aI-38
aI39
aI40
aI33
aI-37
aI9
aI-9
aI-30
aI-18
aI-18
aI-29
aI-13
aI-17
aI-21
aI-12
aI26
aI10
aI-15
aI-22
aI-33
aI-37
aI36
aI11
aI22
aI31
aI23
aI0
aI8
aI29
aI-27
aI-28
aI40
aa(lp16
I-10
aI14
aI-4
aI11
aI8
aI-24
aI36
aI-16
aI-10
aI39
aI-38
aI19
aI4
aI-32
aI-35
aI9
aI39
aI-38
aI-31
aI0
aI-1
aI-2
aI-1
aI2
aI-1
aI36
aI-30
aI23
aI10
aI40
aI-4
aI-34
aI-25
aI-40
aI-35
aI19
aI1
aI-10
aI-14
aI40
aa(lp17
I22
aI-29
aI6
aI10
aI-27
aI9
aI-8
aI12
aI-36
aI-7
aI14
aI29
aI33
aI6
aI20
aI-13
aI-23
aI28
aI3
aI18
aI-25
aI-22
aI18
aI19
aI-7
aI4
aI-8
aI21
aI-6
aI30
aI0
aI23
aI-30
aI-11
aI-18
aI16
aI-17
aI-14
aI20
aI6
aa(lp18
I-1
aI19
aI36
aI10
aI24
aI-1
aI-26
aI9
aI-32
aI-15
aI-10
aI1
aI-15
aI27
aI-38
aI22
aI-11
aI-14
aI-12
aI-8
aI35
aI-37
aI-31
aI-19
aI16
aI23
aI26
aI37
aI34
aI39
aI-29
aI-12
aI34
aI40
aI-36
aI-37
aI10
aI-6
aI26
aI5
aa(lp19
I21
aI16
aI-20
aI36
aI6
aI30
aI12
aI10
aI-36
aI2
aI10
aI39
aI-13
aI-33
aI-26
aI-13
aI-20
aI14
aI30
aI19
aI-21
aI-3
aI-40
aI26
aI-15
aI27
aI31
aI23
aI22
aI38
aI-17
aI5
aI6
aI10
aI-22
aI39
aI22
aI-10
aI-9
aI-24
aa(lp20
I-27
aI24
aI17
aI16
aI-1
aI40
aI-40
aI40
aI34
aI1
aI10
aI24
aI18
aI-22
aI-35
aI22
aI8
aI-18
aI-19
aI30
aI-40
aI-9
aI-6
aI25
aI-20
aI29
aI36
aI35
aI15
aI-24
aI-37
aI34
aI16
aI18
aI17
aI-15
aI-27
aI-38
aI-28
aI-11
aa(lp21
I-27
aI-4
aI-14
aI-36
aI-34
aI3
aI3
aI14
aI-16
aI-29
aI-33
aI-5
aI23
aI33
aI13
aI33
aI-37
aI19
aI-26
aI-7
aI29
aI39
aI2
aI-25
aI28
aI22
aI10
aI13
aI37
aI-5
aI-26
aI2
aI-24
aI-29
aI-8
aI-11
aI40
aI-3
aI-21
aI10
aa(lp22
I-24
aI-36
aI-24
aI-26
aI-37
aI-15
aI1
aI40
aI-25
aI7
aI37
aI-26
aI-17
aI-11
aI19
aI14
aI-37
aI-21
aI22
aI29
aI-29
aI37
aI4
aI39
aI-30
aI12
aI19
aI-27
aI5
aI-32
aI27
aI39
aI22
aI-9
aI-26
aI-25
aI-37
aI5
aI-21
aI-39
aa(lp23
I19
aI18
aI-6
aI-18
aI18
aI23
aI-27
aI-8
aI-2
aI24
aI-22
aI32
aI8
aI6
aI-21
aI-23
aI30
aI30
aI-23
aI-22
aI4
aI5
aI30
aI17
aI-28
aI13
aI0
aI-13
aI17
aI26
aI-15
aI38
aI-23
aI7
aI37
aI-29
aI14
aI-25
aI-35
aI-38
aa(lp24
I26
aI25
aI8
aI12
aI11
aI-15
aI9
aI-28
aI-17
aI-12
aI-17
aI7
aI25
aI5
aI39
aI12
aI-32
aI21
aI-14
aI-25
aI37
aI15
aI23
aI1
aI-16
aI-35
aI22
aI39
aI-30
aI29
aI40
aI-28
aI-2
aI29
aI-15
aI-5
aI-27
aI-25
aI-5
aI28
aa(lp25
I-32
aI19
aI36
aI-23
aI-35
aI-28
aI-34
aI33
aI23
aI2
aI12
aI-8
aI9
aI-9
aI-30
aI33
aI1
aI-3
aI-1
aI35
aI-2
aI-10
aI21
aI-3
aI-15
aI15
aI-33
aI-15
aI1
aI-16
aI-22
aI31
aI-34
aI-31
aI-26
aI-3
aI-9
aI31
aI21
aI39
aa(lp26
I-36
aI13
aI-30
aI-39
aI-40
aI22
aI4
aI-37
aI12
aI14
aI28
aI-16
aI-11
aI33
aI-16
aI31
aI25
aI14
aI7
aI-23
aI-24
aI21
aI13
aI9
aI-24
aI37
aI14
aI22
aI-6
aI5
aI14
aI-28
aI22
aI34
aI-16
aI-19
aI3
aI4
aI-4
aI-8
aa(lp27
I-33
aI32
aI35
aI15
aI-3
aI-2
aI-29
aI0
aI-35
aI38
aI6
aI-28
aI-6
aI-25
aI2
aI-5
aI-13
aI5
aI-29
aI32
aI9
aI1
aI31
aI20
aI35
aI18
aI20
aI37
aI21
aI30
aI36
aI-21
aI-7
aI1
aI18
aI-14
aI4
aI-29
aI4
aI-19
aa(lp28
I36
aI40
aI28
aI31
aI-5
aI36
aI-21
aI-27
aI-40
aI-6
aI25
aI-26
aI21
aI2
aI-40
aI-15
aI2
aI-30
aI39
aI-13
aI-17
aI31
aI-29
aI18
aI-22
aI7
aI6
aI37
aI-34
aI8
aI-8
aI-36
aI31
aI1
aI28
aI31
aI-34
aI-5
aI33
aI-2
aa(lp29
I30
aI-17
aI-26
aI-37
aI-25
aI-37
aI-29
aI-33
aI-11
aI-15
aI6
aI35
aI-25
aI-40
aI30
aI-38
aI23
aI-39
aI-22
aI-7
aI-19
aI27
aI7
aI29
aI36
aI23
aI-21
aI15
aI12
aI-8
aI-28
aI27
aI-21
aI12
aI33
aI30
aI-29
aI25
aI-15
aI7
aa(lp30
I10
aI37
aI-6
aI-8
aI10
aI13
aI39
aI-37
aI-38
aI6
aI-3
aI26
aI-33
aI38
aI9
aI24
aI-36
aI6
aI28
aI-32
aI-19
aI29
aI32
aI25
aI30
aI1
aI-3
aI7
aI40
aI-15
aI-34
aI-23
aI-14
aI-30
aI26
aI-23
aI12
aI34
aI34
aI-11
aa(lp31
I7
aI-1
aI-39
aI-18
aI-4
aI34
aI6
aI30
aI-29
aI1
aI-17
aI23
aI12
aI-36
aI-16
aI-38
aI-2
aI24
aI19
aI40
aI-23
aI3
aI-5
aI2
aI-12
aI18
aI12
aI-40
aI35
aI3
aI30
aI21
aI-15
aI35
aI-19
aI1
aI36
aI-26
aI26
aI8
aa(lp32
I-2
aI-2
aI-13
aI0
aI23
aI33
aI-10
aI12
aI-37
aI-37
aI-1
aI23
aI-38
aI-29
aI-36
aI24
aI4
aI-39
aI17
aI-33
aI-22
aI13
aI7
aI-1
aI21
aI-34
aI15
aI18
aI0
aI-24
aI11
aI18
aI-32
aI-35
aI26
aI11
aI4
aI8
aI-26
aI-9
aa(lp33
I-9
aI-4
aI-5
aI-40
aI-6
aI-11
aI-30
aI-1
aI29
aI40
aI22
aI-28
aI-3
aI-26
aI14
aI7
aI24
aI-40
aI-29
aI4
aI37
aI-38
aI8
aI-39
aI27
aI11
aI40
aI28
aI28
aI11
aI-23
aI6
aI38
aI-15
aI-4
aI-8
aI-16
aI3
aI-36
aI37
aa(lp34
I-5
aI18
aI-36
aI3
aI0
aI28
aI34
aI-24
aI8
aI-33
aI-10
aI-34
aI-20
aI-9
aI6
aI8
aI5
aI17
aI23
aI39
aI-26
aI28
aI0
aI-24
aI2
aI-4
aI-19
aI13
aI32
aI12
aI-12
aI37
aI35
aI20
aI-10
aI-8
aI-21
aI2
aI-29
aI4
aa(lp35
I9
aI-39
aI29
aI10
aI-7
aI-10
aI-14
aI29
aI12
aI-29
aI6
aI29
aI13
aI4
aI3
aI6
aI0
aI-24
aI-18
aI-27
aI-4
aI9
aI39
aI-31
aI15
aI12
aI-6
aI-12
aI32
aI-1
aI34
aI-9
aI13
aI35
aI-11
aI38
aI6
aI16
aI-6
aI-38
aa(lp36
I-14
aI-23
aI-36
aI-18
aI-20
aI26
aI5
aI-27
aI28
aI0
aI35
aI-32
aI0
aI-4
aI-3
aI31
aI-40
aI-1
aI7
aI30
aI-17
aI28
aI31
aI-26
aI-25
aI-19
aI-27
aI-35
aI10
aI-27
aI-12
aI33
aI-19
aI28
aI26
aI-21
aI-22
aI-28
aI-8
aI-9
aa(lp37
I21
aI40
aI6
aI16
aI-14
aI-28
aI34
aI32
aI-31
aI-10
aI-4
aI-4
aI-23
aI22
aI27
aI-30
aI35
aI8
aI-2
aI32
aI17
aI-30
aI-17
aI-38
aI-28
aI-37
aI-7
aI-9
aI-9
aI-28
aI-28
aI-36
aI-6
aI19
aI6
aI2
aI31
aI23
aI20
aI-1
aa(lp38
I12
aI32
aI-30
aI-19
aI6
aI-36
aI30
aI-14
aI-18
aI-7
aI-1
aI-40
aI-22
aI-31
aI33
aI-36
aI18
aI35
aI-22
aI-19
aI24
aI21
aI-19
aI-7
aI40
aI7
aI5
aI14
aI-39
aI28
aI6
aI-38
aI40
aI10
aI33
aI16
aI19
aI-2
aI3
aI19
aa(lp39
I-16
aI5
aI-24
aI13
aI-17
aI-36
aI32
aI-32
aI35
aI34
aI20
aI19
aI-37
aI7
aI-17
aI36
aI-29
aI-22
aI-34
aI36
aI38
aI25
aI-5
aI29
aI6
aI-8
aI38
aI26
aI24
aI-40
aI-12
aI-22
aI-33
aI14
aI19
aI-37
aI25
aI-39
aI20
aI-24
aa(lp40
I4
aI-33
aI-15
aI-18
aI-33
aI-37
aI24
aI-4
aI30
aI18
aI25
aI2
aI-3
aI26
aI-17
aI-4
aI11
aI-37
aI-33
aI-20
aI-32
aI12
aI23
aI11
aI8
aI-4
aI-3
aI29
aI-3
aI5
aI23
aI31
aI-12
aI24
aI-26
aI30
aI27
aI13
aI32
aI-32
aa(lp41
I-17
aI-30
aI3
aI-39
aI-28
aI-26
aI5
aI34
aI-37
aI6
aI-5
aI12
aI12
aI-32
aI5
aI-15
aI-18
aI-22
aI37
aI-36
aI-27
aI35
aI-2
aI-22
aI31
aI26
aI-39
aI6
aI-14
aI-20
aI40
aI13
aI32
aI-32
aI-28
aI-38
aI-11
aI-22
aI-28
aI4
aa(lp42
I-20
aI13
aI-30
aI8
aI21
aI-27
aI-14
aI-1
aI2
aI8
aI30
aI-10
aI-34
aI-33
aI-4
aI-13
aI18
aI-15
aI-21
aI13
aI26
aI12
aI38
aI22
aI-19
aI26
aI-21
aI39
aI18
aI18
aI23
aI-23
aI37
aI-30
aI4
aI-13
aI39
aI-8
aI38
aI-37
aa(lp43
I-32
aI-33
aI25
aI35
aI21
aI21
aI17
aI-10
aI-37
aI-23
aI34
aI24
aI10
aI28
aI0
aI38
aI-3
aI-18
aI21
aI-1
aI12
aI22
aI1
aI17
aI6
aI0
aI-33
aI27
aI3
aI28
aI17
aI-36
aI27
aI31
aI-32
aI2
aI20
aI-30
aI-1
aI36
aa(lp44
I33
aI-14
aI0
aI2
aI-4
aI-29
aI-18
aI13
aI-34
aI38
aI-29
aI7
aI-7
aI6
aI-6
aI-7
aI30
aI-29
aI-10
aI28
aI13
aI-15
aI34
aI5
aI-35
aI-34
aI-12
aI-1
aI-26
aI1
aI-21
aI-8
aI2
aI31
aI-35
aI-27
aI23
aI34
aI31
aI32
aa(lp45
I12
aI5
aI-34
aI-24
aI-6
aI35
aI33
aI-10
aI0
aI2
aI-27
aI-36
aI30
aI31
aI33
aI29
aI22
aI31
aI34
aI14
aI14
aI-18
aI-9
aI-18
aI27
aI24
aI9
aI21
aI14
aI13
aI-34
aI14
aI21
aI-40
aI-28
aI-16
aI4
aI-30
aI-26
aI25
aa(lp46
I36
aI1
aI21
aI38
aI-23
aI-25
aI-1
aI-38
aI14
aI-8
aI12
aI-8
aI17
aI-16
aI6
aI-10
aI-1
aI9
aI-39
aI-38
aI-1
aI33
aI-29
aI-18
aI-20
aI-35
aI14
aI-37
aI4
aI1
aI-19
aI40
aI37
aI10
aI-40
aI-18
aI31
aI-22
aI13
aI-5
aa(lp47
I36
aI-39
aI37
aI-32
aI-2
aI7
aI-35
aI8
aI26
aI38
aI-12
aI23
aI10
aI-6
aI6
aI-36
aI-21
aI32
aI-8
aI4
aI-24
aI19
aI-38
aI-25
aI-26
aI10
aI-33
aI-39
aI39
aI39
aI10
aI18
aI1
aI38
aI-38
aI16
aI12
aI40
aI14
aI-14
aa(lp48
I-14
aI-35
aI-40
aI9
aI6
aI-13
aI1
aI24
aI-36
aI4
aI-23
aI-26
aI-34
aI-35
aI-12
aI11
aI12
aI22
aI-1
aI-15
aI-30
aI-32
aI-31
aI-38
aI-34
aI4
aI10
aI-6
aI-30
aI-40
aI20
aI-1
aI5
aI-15
aI11
aI-6
aI26
aI-20
aI-14
aI0
aa(lp49
I-8
aI5
aI-26
aI12
aI-12
aI3
aI-3
aI34
aI-11
aI-10
aI9
aI26
aI-17
aI-14
aI7
aI-40
aI21
aI-30
aI18
aI9
aI31
aI-14
aI-22
aI-22
aI31
aI-10
aI12
aI0
aI9
aI12
aI33
aI38
aI21
aI-31
aI-13
aI29
aI33
aI39
aI12
aI27
aa(lp50
I-13
aI26
aI9
aI24
aI39
aI-31
aI-6
aI11
aI26
aI36
aI21
aI-13
aI5
aI-18
aI27
aI-19
aI38
aI-10
aI-30
aI-38
aI-32
aI-24
aI8
aI-15
aI-38
aI-23
aI-11
aI-15
aI26
aI15
aI-21
aI30
aI-32
aI38
aI16
aI-27
aI2
aI10
aI-7
aI-18
aa(lp51
I3
aI26
aI29
aI-14
aI22
aI-25
aI-7
aI-3
aI-30
aI-20
aI-38
aI-28
aI3
aI-25
aI18
aI2
aI37
aI-32
aI-1
aI37
aI-34
aI1
aI0
aI21
aI1
aI-11
aI-3
aI24
aI28
aI18
aI29
aI-24
aI-25
aI4
aI4
aI14
aI-8
aI-8
aI30
aI-23
aa(lp52
I39
aI22
aI32
aI37
aI26
aI9
aI-2
aI-3
aI-17
aI40
aI12
aI-40
aI-23
aI36
aI-40
aI5
aI12
aI-7
aI-27
aI30
aI32
aI30
aI34
aI-21
aI35
aI37
aI1
aI-34
aI-25
aI31
aI1
aI-28
aI-27
aI-9
aI25
aI25
aI40
aI-11
aI-25
aI-2
aa(lp53
I-31
aI14
aI-15
aI18
aI37
aI-15
aI7
aI18
aI-30
aI-35
aI38
aI-8
aI10
aI29
aI-21
aI-24
aI-40
aI-13
aI32
aI-22
aI34
aI-17
aI-16
aI-15
aI29
aI19
aI-26
aI-26
aI-20
aI16
aI18
aI28
aI-19
aI-15
aI38
aI29
aI17
aI20
aI37
aI26
aa(lp54
I-38
aI7
aI31
aI26
aI-6
aI21
aI-36
aI-4
aI17
aI-2
aI-3
aI-40
aI32
aI16
aI20
aI6
aI30
aI5
aI2
aI-38
aI-2
aI17
aI10
aI-16
aI20
aI-7
aI-15
aI-38
aI27
aI-4
aI-31
aI1
aI26
aI-9
aI-26
aI18
aI-1
aI-25
aI-31
aI-8
aa(lp55
I3
aI-11
aI-36
aI37
aI-40
aI20
aI-3
aI24
aI20
aI37
aI11
aI34
aI-24
aI-8
aI40
aI40
aI-20
aI-40
aI-5
aI-33
aI-19
aI21
aI-33
aI-17
aI-7
aI-21
aI31
aI23
aI40
aI35
aI29
aI-8
aI40
aI14
aI17
aI32
aI-25
aI-30
aI3
aI9
aa(lp56
I-39
aI40
aI-24
aI-13
aI15
aI-35
aI-33
aI-16
aI-37
aI36
aI10
aI30
aI-35
aI35
aI-13
aI39
aI10
aI37
aI-6
aI-3
aI-35
aI-18
aI20
aI13
aI-16
aI-25
aI-11
aI29
aI20
aI-10
aI17
aI18
aI-32
aI-16
aI-12
aI26
aI-30
aI26
aI36
aI-4
aa(lp57
I20
aI5
aI25
aI22
aI-37
aI20
aI5
aI-8
aI-25
aI20
aI11
aI-8
aI-20
aI-29
aI27
aI4
aI-10
aI40
aI17
aI-39
aI22
aI-18
aI-33
aI34
aI36
aI4
aI-3
aI-14
aI-14
aI28
aI-7
aI-12
aI-11
aI-32
aI-23
aI23
aI3
aI-8
aI38
aI9
aa(lp58
I-35
aI31
aI28
aI10
aI4
aI-5
aI3
aI-30
aI-20
aI36
aI-4
aI-14
aI25
aI40
aI9
aI39
aI1
aI35
aI33
aI9
aI16
aI-33
aI-27
aI-13
aI-15
aI-24
aI-10
aI-21
aI-2
aI35
aI17
aI-9
aI27
aI-39
aI-14
aI33
aI37
aI12
aI-21
aI23
aa(lp59
I-17
aI-6
aI20
aI-24
aI31
aI-26
aI-36
aI38
aI-3
aI-13
aI-21
aI-11
aI31
aI-18
aI-13
aI3
aI40
aI40
aI-34
aI30
aI-21
aI-36
aI-26
aI-38
aI-8
aI31
aI7
aI19
aI16
aI-39
aI23
aI-12
aI-16
aI-36
aI23
aI-7
aI-6
aI-12
aI17
aI-11
aa(lp60
I-35
aI24
aI-35
aI1
aI13
aI-38
aI6
aI7
aI20
aI33
aI-9
aI-40
aI-38
aI-6
aI35
aI38
aI26
aI26
aI-40
aI30
aI14
aI-33
aI-15
aI-19
aI8
aI-3
aI38
aI19
aI18
aI9
aI-39
aI-9
aI-9
aI-3
aI-12
aI37
aI21
aI-27
aI-12
aI13
aa(lp61
I1
aI-6
aI30
aI31
aI17
aI-10
aI-21
aI10
aI1
aI-8
aI-31
aI-33
aI11
aI10
aI-39
aI-32
aI-5
aI-12
aI35
aI-29
aI20
aI22
aI0
aI-37
aI-20
aI-22
aI-8
aI27
aI1
aI3
aI-26
aI25
aI-39
aI-36
aI16
aI1
aI-15
aI-15
aI-8
aI-21
aa(lp62
I5
aI5
aI33
aI-16
aI19
aI-32
aI16
aI-8
aI40
aI29
aI16
aI32
aI22
aI-2
aI33
aI-22
aI0
aI12
aI-15
aI-36
aI33
aI34
aI-9
aI7
aI-26
aI-40
aI3
aI-26
aI-2
aI-26
aI-31
aI13
aI9
aI-19
aI25
aI7
aI-20
aI5
aI-22
aI34
aa(lp63
I-35
aI33
aI8
aI-29
aI-5
aI21
aI30
aI-8
aI5
aI-3
aI9
aI-31
aI14
aI12
aI8
aI-3
aI37
aI13
aI5
aI4
aI0
aI-34
aI23
aI28
aI7
aI-9
aI-40
aI-22
aI-10
aI-24
aI-17
aI26
aI7
aI6
aI27
aI-20
aI-27
aI-36
aI29
aI-21
aa(lp64
I32
aI-14
aI-26
aI14
aI30
aI2
aI13
aI-9
aI9
aI-5
aI-18
aI-40
aI-27
aI-26
aI-1
aI-14
aI26
aI27
aI-34
aI22
aI19
aI11
aI10
aI-34
aI-21
aI-20
aI-39
aI32
aI-23
aI-4
aI8
aI17
aI-33
aI-28
aI-17
aI-3
aI11
aI3
aI38
aI-36
aa(lp65
I11
aI-38
aI20
aI-17
aI22
aI-31
aI-2
aI-29
aI32
aI-1
aI22
aI10
aI21
aI15
aI31
aI7
aI-15
aI-10
aI-6
aI40
aI-5
aI4
aI-11
aI23
aI-10
aI-8
aI-20
aI39
aI7
aI33
aI-35
aI9
aI15
aI-4
aI35
aI30
aI-16
aI18
aI-27
aI-28
aa(lp66
I-7
aI12
aI5
aI-9
aI-14
aI-34
aI23
aI-32
aI-36
aI37
aI2
aI-12
aI-5
aI36
aI15
aI7
aI1
aI32
aI29
aI19
aI-18
aI-32
aI-40
aI-38
aI0
aI17
aI26
aI-38
aI-15
aI35
aI9
aI19
aI-5
aI-3
aI31
aI-31
aI-8
aI16
aI-11
aI8
aa(lp67
I0
aI19
aI19
aI-3
aI29
aI16
aI34
aI-16
aI14
aI-1
aI-5
aI12
aI34
aI9
aI32
aI4
aI18
aI22
aI18
aI-40
aI-38
aI-15
aI-25
aI-40
aI4
aI30
aI6
aI-9
aI-8
aI38
aI-14
aI24
aI-9
aI-15
aI20
aI33
aI-29
aI15
aI-25
aI30
aa(lp68
I-1
aI-25
aI-8
aI2
aI-6
aI31
aI24
aI-3
aI-34
aI13
aI-17
aI6
aI-37
aI-37
aI31
aI-40
aI-38
aI-22
aI17
aI25
aI-27
aI-39
aI-12
aI14
aI-14
aI28
aI-12
aI29
aI-28
aI-16
aI-9
aI-37
aI-20
aI21
aI2
aI-29
aI9
aI-20
aI-30
aI-12
aa(lp69
I27
aI-33
aI5
aI17
aI0
aI12
aI-26
aI31
aI1
aI-35
aI-7
aI-19
aI35
aI-33
aI28
aI32
aI10
aI-19
aI1
aI29
aI-20
aI-5
aI-40
aI-30
aI-38
aI39
aI8
aI40
aI-2
aI-21
aI-22
aI-11
aI20
aI-20
aI15
aI-5
aI-10
aI7
aI22
aI-20
aa(lp70
I3
aI-17
aI11
aI4
aI-21
aI-27
aI39
aI14
aI30
aI-36
aI20
aI-12
aI-19
aI-29
aI5
aI40
aI-36
aI-19
aI3
aI-11
aI29
aI-1
aI34
aI-18
aI-10
aI31
aI3
aI2
aI-18
aI-27
aI15
aI-33
aI2
aI37
aI-8
aI16
aI-11
aI18
aI-18
aI14
aa(lp71
I-19
aI-6
aI-17
aI9
aI-27
aI11
aI-28
aI-1
aI25
aI12
aI-38
aI18
aI4
aI7
aI-16
aI9
aI28
aI9
aI39
aI1
aI24
aI-1
aI12
aI3
aI-15
aI18
aI-39
aI40
aI-23
aI-14
aI-32
aI14
aI22
aI21
aI-6
aI-6
aI-35
aI-12
aI-29
aI-1
aa(lp72
I-26
aI-32
aI38
aI-30
aI-26
aI-2
aI-22
aI-4
aI10
aI16
aI-3
aI-2
aI22
aI-38
aI25
aI38
aI-15
aI-5
aI29
aI-35
aI-30
aI9
aI23
aI11
aI2
aI23
aI-31
aI23
aI19
aI-25
aI-13
aI-24
aI30
aI-2
aI-19
aI-35
aI35
aI-14
aI22
aI-11
aa(lp73
I-24
aI13
aI2
aI-13
aI-15
aI-18
aI-30
aI-26
aI-1
aI-20
aI-2
aI5
aI33
aI24
aI15
aI-24
aI-23
aI29
aI19
aI3
aI-36
aI1
aI8
aI25
aI36
aI29
aI-12
aI6
aI16
aI-24
aI33
aI35
aI27
aI39
aI33
aI38
aI-29
aI-13
aI14
aI9
aa(lp74
I-38
aI-30
aI22
aI-34
aI-31
aI10
aI-8
aI-8
aI-26
aI-3
aI-32
aI30
aI16
aI7
aI16
aI26
aI12
aI-3
aI5
aI15
aI-4
aI-4
aI-29
aI-8
aI36
aI-14
aI17
aI32
aI-2
aI-1
aI22
aI31
aI4
aI-18
aI23
aI3
aI-33
aI28
aI-26
aI-32
aa(lp75
I12
aI-16
aI20
aI36
aI-9
aI17
aI37
aI-39
aI22
aI35
aI7
aI-25
aI-14
aI-28
aI7
aI34
aI14
aI25
aI4
aI13
aI-29
aI28
aI-20
aI-6
aI-4
aI-13
aI4
aI-3
aI16
aI5
aI29
aI22
aI5
aI-29
aI-23
aI-30
aI32
aI-12
aI-5
aI29
aa(lp76
I16
aI-24
aI22
aI15
aI-7
aI15
aI39
aI26
aI40
aI19
aI1
aI-22
aI-8
aI-26
aI10
aI13
aI6
aI-32
aI-15
aI15
aI3
aI12
aI-29
aI-10
aI-25
aI-18
aI-3
aI-18
aI-39
aI-19
aI4
aI15
aI-38
aI-27
aI33
aI-7
aI-28
aI28
aI-39
aI21
aa(lp77
I-36
aI-9
aI9
aI-1
aI-11
aI-13
aI-2
aI14
aI-39
aI-29
aI-11
aI-23
aI-14
aI5
aI8
aI16
aI-40
aI-29
aI-32
aI-30
aI24
aI34
aI-25
aI-16
aI-24
aI24
aI25
aI-15
aI35
aI-12
aI-17
aI-26
aI37
aI-19
aI-4
aI-34
aI-34
aI16
aI-6
aI-22
aa(lp78
I-24
aI-32
aI12
aI9
aI-24
aI11
aI-25
aI39
aI-35
aI9
aI11
aI-25
aI10
aI-27
aI-32
aI-35
aI7
aI-5
aI11
aI-36
aI16
aI26
aI1
aI-30
aI17
aI-10
aI-17
aI3
aI-18
aI20
aI-19
aI-15
aI-6
aI-24
aI-33
aI-21
aI35
aI-40
aI17
aI-30
aa(lp79
I10
aI-24
aI-14
aI29
aI-34
aI17
aI36
aI-2
aI-6
aI10
aI6
aI34
aI-30
aI12
aI23
aI-2
aI-10
aI-21
aI25
aI13
aI-38
aI9
aI-19
aI-22
aI18
aI35
aI11
aI28
aI-24
aI5
aI35
aI13
aI-37
aI-19
aI9
aI39
aI-27
aI-8
aI-8
aI-38
aa(lp80
I22
aI-3
aI26
aI-28
aI-4
aI-21
aI-39
aI-13
aI-4
aI-20
aI-10
aI-26
aI-21
aI23
aI-1
aI15
aI-38
aI-5
aI-22
aI6
aI21
aI6
aI6
aI13
aI37
aI29
aI16
aI4
aI22
aI40
aI-1
aI31
aI35
aI-18
aI-16
aI-26
aI33
aI18
aI12
aI-4
aa(lp81
I37
aI13
aI-3
aI38
aI-13
aI29
aI-10
aI21
aI-26
aI22
aI-18
aI-35
aI31
aI-16
aI37
aI39
aI9
aI14
aI-1
aI27
aI-23
aI40
aI-15
aI-39
aI-28
aI-15
aI-36
aI17
aI6
aI2
aI-24
aI-1
aI17
aI20
aI-36
aI29
aI-40
aI25
aI-37
aI31
aa(lp82
I-16
aI-12
aI39
aI-8
aI-25
aI7
aI6
aI35
aI-2
aI-29
aI-4
aI15
aI0
aI15
aI4
aI14
aI32
aI16
aI-6
aI-40
aI2
aI3
aI-3
aI30
aI-12
aI-30
aI14
aI3
aI-6
aI-19
aI-26
aI39
aI-34
aI12
aI22
aI-25
aI39
aI-15
aI-21
aI23
aa(lp83
I23
aI38
aI-15
aI39
aI7
aI8
aI35
aI36
aI-7
aI26
aI25
aI34
aI24
aI23
aI36
aI-4
aI18
aI-25
aI-5
aI15
aI1
aI10
aI8
aI6
aI-24
aI0
aI-19
aI26
aI24
aI-6
aI22
aI-24
aI23
aI-38
aI-26
aI-18
aI10
aI24
aI1
aI-25
aa(lp84
I-39
aI-18
aI-39
aI-5
aI12
aI36
aI32
aI-32
aI-9
aI-9
aI21
aI25
aI40
aI33
aI5
aI-7
aI-17
aI-9
aI-5
aI-17
aI-19
aI25
aI38
aI2
aI-40
aI32
aI-17
aI-6
aI-13
aI32
aI-6
aI32
aI34
aI-2
aI37
aI-36
aI-27
aI29
aI-33
aI30
aa(lp85
I28
aI-21
aI34
aI8
aI-18
aI4
aI18
aI-20
aI17
aI-6
aI-9
aI-39
aI12
aI-20
aI14
aI-7
aI-28
aI22
aI14
aI-27
aI-39
aI21
aI-31
aI-17
aI25
aI-6
aI-37
aI-24
aI-32
aI-26
aI-32
aI16
aI-15
aI-5
aI-40
aI19
aI-9
aI-27
aI-22
aI28
aa(lp86
I-20
aI-36
aI-27
aI-22
aI-36
aI-40
aI-16
aI-34
aI30
aI-8
aI37
aI9
aI-18
aI6
aI-1
aI16
aI-6
aI-12
aI23
aI-26
aI32
aI8
aI-24
aI-38
aI-38
aI-36
aI-28
aI-11
aI-26
aI-40
aI-39
aI16
aI-1
aI-6
aI19
aI7
aI-22
aI19
aI-26
aI4
aa(lp87
I-30
aI1
aI26
aI-22
aI20
aI-5
aI-25
aI-5
aI35
aI34
aI-35
aI-39
aI7
aI25
aI12
aI0
aI-16
aI-35
aI26
aI-33
aI-16
aI-26
aI17
aI-22
aI-8
aI37
aI-31
aI-1
aI23
aI-30
aI-33
aI-7
aI8
aI-2
aI-13
aI-2
aI29
aI-7
aI-8
aI37
aa(lp88
I-10
aI20
aI9
aI19
aI39
aI1
aI32
aI-11
aI15
aI-16
aI-20
aI-29
aI24
aI6
aI15
aI32
aI-21
aI24
aI-35
aI-17
aI-23
aI-30
aI-34
aI32
aI29
aI-14
aI18
aI-13
aI-40
aI8
aI-9
aI-16
aI-24
aI19
aI29
aI-5
aI-33
aI23
aI-15
aI-33
aa(lp89
I13
aI15
aI22
aI13
aI37
aI12
aI-15
aI28
aI22
aI22
aI-32
aI12
aI-19
aI39
aI31
aI-29
aI-38
aI11
aI-25
aI-34
aI40
aI-28
aI21
aI10
aI-34
aI-25
aI30
aI12
aI12
aI17
aI12
aI-26
aI19
aI20
aI-5
aI-15
aI-39
aI27
aI11
aI-12
aa(lp90
I-36
aI33
aI-36
aI7
aI0
aI-23
aI-27
aI-35
aI-18
aI19
aI-14
aI7
aI38
aI38
aI4
aI15
aI-21
aI-29
aI-19
aI-28
aI-15
aI-10
aI-12
aI9
aI1
aI-25
aI-14
aI-5
aI-16
aI1
aI-31
aI0
aI15
aI-21
aI14
aI-32
aI-38
aI-16
aI-33
aI27
aa(lp91
I28
aI40
aI-2
aI4
aI-24
aI16
aI23
aI-14
aI4
aI0
aI-9
aI-1
aI-35
aI34
aI21
aI-12
aI0
aI-14
aI18
aI-1
aI7
aI2
aI12
aI37
aI3
aI-33
aI-10
aI12
aI-30
aI-19
aI1
aI-9
aI-18
aI30
aI19
aI27
aI27
aI40
aI-3
aI-37
aa(lp92
I-32
aI-29
aI28
aI-30
aI-4
aI-21
aI10
aI-13
aI-17
aI17
aI33
aI11
aI-40
aI37
aI-31
aI39
aI-28
aI5
aI4
aI-32
aI-28
aI-11
aI10
aI40
aI25
aI4
aI10
aI-9
aI-19
aI-12
aI-6
aI-2
aI25
aI-40
aI18
aI17
aI-25
aI14
aI40
aI-20
aa(lp93
I31
aI-10
aI37
aI-10
aI-31
aI9
aI26
aI-17
aI31
aI-28
aI-2
aI26
aI-24
aI33
aI-20
aI-7
aI-3
aI24
aI-11
aI-15
aI23
aI12
aI-35
aI16
aI32
aI-28
aI-35
aI20
aI15
aI-22
aI9
aI29
aI-5
aI-38
aI0
aI17
aI-8
aI11
aI1
aI38
aa(lp94
I36
aI-10
aI-14
aI-12
aI-34
aI26
aI-35
aI-28
aI19
aI33
aI19
aI1
aI-29
aI-34
aI-16
aI29
aI-7
aI-39
aI24
aI-13
aI23
aI31
aI-36
aI38
aI34
aI24
aI-27
aI-26
aI25
aI22
aI-30
aI-19
aI-34
aI6
aI-23
aI-14
aI-29
aI35
aI-3
aI-5
aa(lp95
I-17
aI-15
aI38
aI13
aI14
aI1
aI-36
aI-2
aI1
aI33
aI-27
aI-19
aI22
aI-11
aI-7
aI-17
aI31
aI-26
aI40
aI23
aI19
aI36
aI-23
aI7
aI29
aI12
aI-34
aI14
aI-28
aI17
aI-7
aI2
aI-35
aI-17
aI-18
aI7
aI-39
aI32
aI35
aI-29
aa(lp96
I-17
aI32
aI1
aI5
aI19
aI31
aI6
aI-4
aI-19
aI-19
aI-35
aI35
aI36
aI7
aI-1
aI-23
aI38
aI-7
aI29
aI-32
aI-26
aI-15
aI33
aI-40
aI-19
aI13
aI-31
aI27
aI29
aI32
aI-8
aI-36
aI-3
aI1
aI13
aI0
aI-10
aI8
aI16
aI7
aa(lp97
I22
aI-37
aI-17
aI21
aI3
aI-17
aI-28
aI21
aI-40
aI12
aI-20
aI23
aI-14
aI-9
aI-13
aI-13
aI17
aI0
aI11
aI-11
aI31
aI-15
aI22
aI-4
aI-10
aI40
aI-38
aI21
aI-39
aI-18
aI31
aI-12
aI-1
aI-16
aI-34
aI-28
aI6
aI30
aI-25
aI2
aa(lp98
I35
aI-37
aI31
aI-36
aI-19
aI-32
aI5
aI-15
aI-39
aI39
aI-18
aI-39
aI30
aI-8
aI31
aI27
aI31
aI27
aI6
aI18
aI12
aI-16
aI-29
aI17
aI-14
aI28
aI-11
aI26
aI32
aI15
aI-39
aI33
aI-23
aI-40
aI11
aI-21
aI16
aI-31
aI37
aI-33
aa(lp99
I-35
aI11
aI-18
aI9
aI24
aI-34
aI12
aI-40
aI-14
aI30
aI-24
aI-4
aI7
aI29
aI-39
aI-30
aI31
aI-33
aI22
aI5
aI-11
aI-20
aI-22
aI-28
aI-18
aI-5
aI2
aI32
aI-3
aI5
aI-13
aI28
aI12
aI-10
aI11
aI-13
aI11
aI-13
aI-37
aI31
aa(lp100
I19
aI6
aI-9
aI16
aI24
aI40
aI-38
aI16
aI-7
aI5
aI1
aI-28
aI-14
aI-15
aI-36
aI21
aI14
aI-16
aI34
aI-6
aI-21
aI-28
aI-10
aI24
aI34
aI28
aI12
aI-8
aI-27
aI-34
aI18
aI7
aI-9
aI-20
aI-13
aI7
aI25
aI20
aI-27
aI-23
aa.