(lp0
(lp1
I0
aI1
aI-16
aI-34
aI20
aI34
aI-29
aI-5
aI-48
aI40
aI-36
aI-32
aI9
aI-5
aI-11
aI21
aI9
aI-4
aI45
aI49
aI-27
aI48
aI-35
aI15
aI40
aI-35
aI-4
aI24
aI4
aI-12
aI25
aI-29
aI-19
aI-24
aI50
aI1
aI18
aI16
aI9
aI36
aI-7
aI-30
aI-7
aI21
aI9
aI24
aI2
aI-4
aI-2
aI-4
aa(lp2
I24
aI44
aI-5
aI-14
aI-49
aI-12
aI28
aI-3
aI-39
aI-18
aI-44
aI-32
aI-18
aI-23
aI9
aI-4
aI19
aI-34
aI-23
aI-48
aI30
aI33
aI-26
aI-36
aI-26
aI-33
aI34
aI-8
aI45
aI-22
aI40
aI-29
aI12
aI14
aI15
aI36
aI-43
aI-24
aI-10
aI25
aI11
aI-37
aI-36
aI-44
aI-27
aI5
aI-11
aI-5
aI-33
aI-12
aa(lp3
I16
aI-19
aI2
aI21
aI-36
aI-14
aI-20
aI-5
aI-12
aI42
aI0
aI-11
aI-30
aI23
aI-46
aI-39
aI-47
aI29
aI-25
aI16
aI-29
aI16
aI-33
aI17
aI21
aI-28
aI12
aI16
aI4
aI1
aI6
aI-35
aI10
aI-4
aI-28
aI-33
aI11
aI17
aI-27
aI28
aI33
aI-39
aI37
aI27
aI26
aI14
aI-33
aI-6
aI-28
aI31
aa(lp4
I3
aI-21
aI-29
aI6
aI46
aI37
aI26
aI-49
aI-25
aI39
aI-39
aI20
aI-41
aI-28
aI-12
aI-18
aI3
aI44
aI20
aI-50
aI-40
aI47
aI-50
aI47
aI1
aI-3
aI-24
aI46
aI-4
aI-33
aI-38
aI-31
aI-12
aI-43
aI-41
aI-23
aI25
aI23
aI-9
aI-33
aI-27
aI-32
aI-3
aI-22
aI-43
aI15
aI-5
aI22
aI-16
aI-13
aa(lp5
I22
aI-7
aI49
aI13
aI0
aI-42
aI31
aI8
aI-15
aI-35
aI0
aI-38
aI48
aI-40
aI30
aI-3
aI-22
aI45
aI-25
aI13
aI48
aI27
aI9
aI-13
aI41
aI-15
aI40
aI15
aI-31
aI19
aI-27
aI35
aI-17
aI14
aI-32
aI8
aI-26
aI47
aI45
aI-7
aI-26
aI8
aI11
aI-50
aI41
aI44
aI-45
aI-39
aI-41
aI5
aa(lp6
I-47
aI12
aI28
aI34
aI8
aI23
aI49
aI41
aI-26
aI15
aI-32
aI-31
aI19
aI30
aI43
aI6
aI-25
aI-18
aI21
aI12
aI28
aI1
aI-7
aI-1
aI47
aI-9
aI-50
aI-41
aI-18
aI-11
aI12
aI43
aI2
aI-32
aI-4
aI-25
aI-36
aI30
aI44
aI31
aI30
aI-18
aI11
aI12
aI-38
aI-44
aI-46
aI-10
aI-27
aI21
aa(lp7
I-4
aI-3
aI-20
aI-31
aI-31
aI19
aI-23
aI10
aI-40
aI-48
aI39
aI45
aI-12
aI37
aI45
aI-1
aI-38
aI37
aI-13
aI-40
aI40
aI7
aI-47
aI-25
aI-5
aI48
aI-25
aI13
aI38
aI29
aI5
aI-19
aI-9
aI-1
aI-10
aI-48
aI-31
aI-27
aI11
aI-40
aI33
aI-45
aI48
aI-38
aI10
aI13
aI-47
aI-50
aI-23
aI1
aa(lp8
I47
aI-12
aI47
aI-15
aI-8
aI-27
aI-6
aI-43
aI-41
aI-7
aI14
aI-17
aI-42
aI-24
aI-21
aI-47
aI24
aI13
aI19
aI-19
aI-10
aI-45
aI-13
aI49
aI-26
aI-10
aI1
aI12
aI47
aI44
aI-13
aI7
aI-8
aI45
aI-25
aI-16
aI47
aI3
aI-29
aI50
aI17
aI-44
aI-49
aI40
aI-24
aI-46
aI-36
aI15
aI-45
aI-4
aa(lp9
I-32
aI28
aI-25
aI21
aI38
aI-19
aI11
aI31
aI-3
aI44
aI33
aI-19
aI28
aI5
aI-12
aI-19
aI44
aI12
aI40
aI-23
aI30
aI-23
aI-50
aI44
aI50
aI7
aI0
aI17
aI-48
aI43
aI12
aI13
aI-32
aI38
aI-14
aI-47
aI-3
aI-46
aI-43
aI10
aI11
aI-40
aI-23
aI-40
aI-17
aI26
aI30
aI-32
aI-20
aI-10
aa(lp10
I-3
aI-26
aI-39
aI-22
aI49
aI-9
aI-35
aI7
aI7
aI6
aI-41
aI-6
aI7
aI-30
aI-31
aI33
aI-8
aI-43
aI33
aI19
aI-19
aI29
aI-1
aI-41
aI10
aI-27
aI-29
aI-26
aI-20
aI-14
aI12
aI46
aI26
aI47
aI28
aI-26
aI-24
aI44
aI-2
aI-40
aI-29
aI6
aI-36
aI-1
aI-41
aI38
aI-8
aI24
aI-1
aI30
aa(lp11
I-6
aI37
aI-13
aI39
aI-38
aI50
aI24
aI-19
aI28
aI-30
aI-49
aI-36
aI-32
aI29
aI-25
aI5
aI36
aI1
aI42
aI39
aI40
aI5
aI-47
aI-4
aI5
aI-35
aI33
aI-18
aI-50
aI-18
aI-27
aI28
aI36
aI-16
aI1
aI24
aI-36
aI-15
aI47
aI19
aI-36
aI3
aI25
aI-33
aI-25
aI-50
aI26
aI17
aI6
aI19
aa(lp12
I-49
aI23
aI3
aI40
aI-9
aI-34
aI-42
aI5
aI12
aI8
aI-10
aI-9
aI-19
aI34
aI4
aI26
aI18
aI48
aI-10
aI-5
aI31
aI-47
aI41
aI43
aI-8
aI-33
aI-38
aI-48
aI12
aI0
aI17
aI-9
aI12
aI42
aI-15
aI36
aI-11
aI-43
aI-47
aI-2
aI-14
aI-15
aI26
aI-2
aI33
aI-5
aI5
aI-1
aI-3
aI5
aa(lp13
I-37
aI-9
aI41
aI-10
aI-8
aI49
aI-5
aI15
aI-22
aI-25
aI-44
aI-10
aI24
aI28
aI20
aI3
aI10
aI35
aI-37
aI-35
aI-4
aI39
aI-16
aI-46
aI14
aI-26
aI27
aI-25
aI16
aI3
aI34
aI27
aI-49
aI49
aI37
aI41
aI-40
aI-4
aI-1
aI-13
aI33
aI43
aI-10
aI7
aI0
aI-45
aI21
aI35
aI45
aI11
aa(lp14
I25
aI15
aI26
aI-19
aI13
aI-12
aI43
aI27
aI24
aI24
aI47
aI-46
aI49
aI-9
aI-50
aI-29
aI47
aI2
aI19
aI-28
aI39
aI16
aI13
aI15
aI-17
aI39
aI-45
aI-27
aI36
aI-11
aI-2
aI-11
aI-10
aI12
aI44
aI7
aI41
aI-27
aI-16
aI14
aI-17
aI19
aI10
aI18
aI34
aI10
aI-15
aI31
aI32
aI14
aa(lp15
I-26
aI-33
aI-7
aI-26
aI38
aI-24
aI-24
aI-24
aI40
aI-43
aI-22
aI-7
aI-27
aI3
aI6
aI-49
aI11
aI-29
aI10
aI-39
aI30
aI7
aI2
aI-18
aI-11
aI-39
aI13
aI15
aI14
aI48
aI44
aI30
aI-14
aI47
aI-47
aI37
aI-12
aI4
aI32
aI45
aI38
aI11
aI-35
aI44
aI41
aI32
aI-6
aI28
aI-10
aI-9
aa(lp16
I-27
aI2
aI-21
aI-20
aI1
aI-49
aI-49
aI-36
aI6
aI40
aI-31
aI41
aI47
aI22
aI-10
aI-36
aI-15
aI0
aI12
aI2
aI45
aI-16
aI16
aI-16
aI-36
aI-27
aI-42
aI-8
aI-26
aI-39
aI-2
aI44
aI-32
aI-30
aI-19
aI-42
aI38
aI33
aI-25
aI5
aI39
aI47
aI1
aI-5
aI43
aI-17
aI37
aI29
aI30
aI-48
aa(lp17
I-28
aI-35
aI33
aI-4
aI-3
aI-29
aI11
aI-20
aI1
aI-8
aI45
aI2
aI-45
aI4
aI-17
aI-3
aI-36
aI-17
aI-13
aI-35
aI33
aI-32
aI-36
aI-20
aI-30
aI-47
aI-25
aI31
aI-11
aI-44
aI-36
aI16
aI-26
aI-28
aI-26
aI15
aI-38
aI-27
aI-47
aI30
aI-14
aI-24
aI19
aI-44
aI-5
aI29
aI-4
aI-50
aI18
aI34
aa(lp18
I2
aI-22
aI5
aI-41
aI41
aI27
aI-25
aI-21
aI-23
aI49
aI34
aI3
aI-10
aI24
aI-28
aI-35
aI0
aI-34
aI-18
aI36
aI-18
aI13
aI-26
aI-34
aI-28
aI-5
aI21
aI-44
aI-15
aI13
aI-36
aI-4
aI2
aI-27
aI49
aI-41
aI-2
aI-33
aI45
aI50
aI-31
aI21
aI29
aI-45
aI-2
aI-40
aI20
aI19
aI9
aI3
aa(lp19
I0
aI-47
aI-47
aI27
aI-24
aI14
aI-25
aI-33
aI50
aI-25
aI-23
aI17
aI-42
aI-14
aI38
aI2
aI14
aI32
aI48
aI-1
aI36
aI27
aI38
aI10
aI38
aI22
aI43
aI-50
aI0
aI12
aI-31
aI-42
aI-50
aI-14
aI-41
aI-5
aI-9
aI-42
aI-49
aI6
aI-14
aI-14
aI13
aI-10
aI19
aI42
aI-33
aI-29
aI-47
aI-36
aa(lp20
I19
aI-6
aI4
aI25
aI6
aI28
aI-10
aI29
aI23
aI-6
aI-26
aI-16
aI-22
aI-39
aI48
aI12
aI39
aI40
aI34
aI-1
aI-24
aI-24
aI-18
aI-10
aI-34
aI-43
aI-7
aI-39
aI17
aI38
aI-33
aI19
aI34
aI45
aI-36
aI23
aI6
aI-22
aI-14
aI35
aI43
aI-30
aI-22
aI8
aI23
aI13
aI-33
aI-20
aI0
aI1
aa(lp21
I2
aI-33
aI19
aI29
aI46
aI14
aI-28
aI3
aI-11
aI-23
aI32
aI-16
aI5
aI37
aI36
aI-45
aI40
aI21
aI-14
aI-16
aI-10
aI8
aI48
aI26
aI39
aI4
aI-18
aI-27
aI-4
aI-46
aI-19
aI16
aI26
aI-4
aI-26
aI-21
aI-20
aI-4
aI41
aI-21
aI-43
aI28
aI12
aI47
aI-16
aI-5
aI25
aI27
aI47
aI-20
aa(lp22
I34
aI29
aI6
aI0
aI-12
aI27
aI-23
aI-23
aI-43
aI-28
aI33
aI10
aI20
aI-33
aI4
aI39
aI5
aI-27
aI-34
aI32
aI43
aI-29
aI18
aI-5
aI-36
aI-8
aI34
aI3
aI15
aI36
aI-4
aI-10
aI12
aI-34
aI32
aI-25
aI-50
aI-24
aI44
aI-23
aI-33
aI-5
aI-14
aI-19
aI20
aI-43
aI-23
aI-3
aI48
aI6
aa(lp23
I-12
aI-23
aI-16
aI26
aI1
aI-33
aI12
aI-40
aI-45
aI-9
aI-36
aI46
aI-41
aI9
aI-23
aI-36
aI33
aI-49
aI-29
aI-29
aI-13
aI0
aI-41
aI-37
aI-10
aI2
aI4
aI38
aI24
aI-7
aI-23
aI-5
aI42
aI-7
aI0
aI-41
aI27
aI-2
aI-26
aI21
aI-27
aI41
aI-12
aI-11
aI20
aI23
aI-14
aI26
aI-31
aI-8
aa(lp24
I-15
aI-49
aI8
aI0
aI33
aI-22
aI-41
aI19
aI-23
aI46
aI41
aI-41
aI15
aI34
aI12
aI-46
aI18
aI-33
aI36
aI6
aI-23
aI35
aI37
aI41
aI10
aI-18
aI12
aI18
aI4
aI-6
aI42
aI23
aI8
aI-47
aI-3
aI-24
aI-30
aI3
aI11
aI27
aI21
aI-12
aI-37
aI-5
aI26
aI-15
aI49
aI20
aI3
aI-5
aa(lp25
I30
aI-7
aI-4
aI-34
aI35
aI22
aI-11
aI19
aI50
aI42
aI35
aI-23
aI22
aI23
aI-30
aI49
aI49
aI-28
aI1
aI41
aI-6
aI-37
aI-29
aI-1
aI-33
aI19
aI33
aI10
aI-18
aI29
aI-44
aI44
aI33
aI-13
aI12
aI-45
aI34
aI-32
aI-4
aI-36
aI34
aI-20
aI12
aI4
aI46
aI9
aI-48
aI-48
aI23
aI-27
aa(lp26
I16
aI-10
aI-7
aI-27
aI13
aI4
aI35
aI13
aI-23
aI-20
aI-14
aI32
aI-44
aI39
aI-20
aI-6
aI29
aI-40
aI-23
aI-39
aI47
aI-38
aI-5
aI-4
aI-45
aI-40
aI18
aI33
aI-22
aI44
aI41
aI5
aI-38
aI45
aI-35
aI46
aI-46
aI-29
aI-48
aI-34
aI32
aI45
aI-32
aI8
aI-5
aI46
aI4
aI-39
aI-39
aI41
aa(lp27
I14
aI23
aI-34
aI-5
aI-19
aI19
aI23
aI-17
aI-44
aI-1
aI15
aI32
aI-34
aI23
aI17
aI15
aI39
aI-22
aI23
aI-40
aI-30
aI-17
aI-7
aI45
aI47
aI-43
aI-34
aI-38
aI-21
aI24
aI22
aI-1
aI47
aI-31
aI35
aI1
aI-22
aI22
aI-6
aI-47
aI-21
aI5
aI-10
aI3
aI-2
aI-50
aI18
aI10
aI33
aI-36
aa(lp28
I34
aI41
aI-23
aI-18
aI26
aI-46
aI-34
aI16
aI-11
aI24
aI26
aI36
aI1
aI-36
aI42
aI-48
aI48
aI0
aI34
aI17
aI8
aI-35
aI48
aI-25
aI6
aI-45
aI-30
aI50
aI-36
aI1
aI-44
aI43
aI-37
aI-40
aI38
aI-47
aI-24
aI10
aI-46
aI-39
aI-6
aI-26
aI15
aI-39
aI13
aI14
aI44
aI-15
aI-39
aI36
aa(lp29
I27
aI-50
aI35
aI-20
aI-10
aI15
aI39
aI46
aI-31
aI9
aI16
aI-7
aI32
aI9
aI2
aI40
aI40
aI43
aI18
aI6
aI-38
aI-31
aI6
aI-7
aI-33
aI-26
aI-49
aI-3
aI17
aI-9
aI-32
aI2
aI-26
aI45
aI17
aI47
aI10
aI12
aI-46
aI-39
aI-19
aI50
aI-43
aI11
aI8
aI34
aI1
aI45
aI-39
aI4
aa(lp30
I24
aI50
aI-35
aI5
aI0
aI4
aI-10
aI22
aI37
aI26
aI28
aI-16
aI-44
aI-16
aI-47
aI20
aI25
aI-50
aI35
aI36
aI21
aI50
aI-40
aI36
aI25
aI-29
aI45
aI-34
aI-8
aI8
aI39
aI24
aI-12
aI32
aI36
aI-22
aI30
aI9
aI5
aI40
aI41
aI-50
aI49
aI-3
aI-29
aI17
aI0
aI-15
aI0
aI28
aa(lp31
I-48
aI-30
aI-42
aI47
aI-30
aI35
aI-8
aI40
aI29
aI-23
aI8
aI39
aI33
aI14
aI-16
aI10
aI-18
aI20
aI23
aI-10
aI-27
aI-21
aI-40
aI50
aI-15
aI-43
aI24
aI28
aI43
aI46
aI5
aI-33
aI7
aI14
aI30
aI37
aI-50
aI-27
aI-18
aI-6
aI7
aI29
aI9
aI-20
aI31
aI4
aI47
aI-41
aI-38
aI-6
aa(lp32
I-41
aI35
aI8
aI-2
aI50
aI33
aI-32
aI13
aI-30
aI-32
aI8
aI36
aI31
aI47
aI-12
aI8
aI36
aI40
aI-36
aI-27
aI-31
aI19
aI-7
aI-8
aI48
aI-38
aI45
aI28
aI-43
aI35
aI-33
aI-46
aI47
aI30
aI-22
aI-31
aI-44
aI-9
aI-29
aI42
aI-48
aI-30
aI-32
aI47
aI-10
aI48
aI42
aI-36
aI-6
aI10
aa(lp33
I22
aI-11
aI1
aI20
aI7
aI27
aI-32
aI32
aI0
aI29
aI20
aI-1
aI26
aI23
aI-26
aI-21
aI11
aI17
aI-22
aI2
aI-31
aI-18
aI-41
aI30
aI47
aI-34
aI23
aI7
aI15
aI29
aI46
aI-36
aI11
aI-35
aI-48
aI23
aI3
aI-31
aI1
aI21
aI-11
aI21
aI-24
aI15
aI-48
aI-47
aI-16
aI-11
aI-26
aI-16
aa(lp34
I-46
aI37
aI36
aI-10
aI-40
aI41
aI-48
aI-4
aI48
aI18
aI38
aI19
aI33
aI0
aI28
aI2
aI17
aI-21
aI50
aI-4
aI-28
aI45
aI-19
aI-37
aI-40
aI-38
aI33
aI20
aI-13
aI17
aI17
aI-22
aI-12
aI-20
aI0
aI33
aI-43
aI33
aI1
aI33
aI5
aI3
aI5
aI46
aI49
aI42
aI31
aI18
aI0
aI28
aa(lp35
I7
aI25
aI20
aI-32
aI31
aI22
aI47
aI-5
aI-15
aI23
aI41
aI-35
aI29
aI-38
aI24
aI37
aI19
aI18
aI35
aI-34
aI-40
aI-16
aI10
aI-3
aI-45
aI-12
aI42
aI38
aI2
aI34
aI-44
aI-1
aI-10
aI-40
aI-7
aI-46
aI7
aI49
aI49
aI6
aI31
aI5
aI-29
aI7
aI-25
aI-24
aI-24
aI12
aI7
aI-25
aa(lp36
I17
aI-9
aI15
aI7
aI-33
aI11
aI14
aI48
aI26
aI-48
aI-19
aI-19
aI-49
aI-32
aI27
aI-13
aI-31
aI-7
aI44
aI7
aI20
aI-8
aI47
aI-11
aI-10
aI-28
aI19
aI6
aI18
aI19
aI14
aI7
aI6
aI-12
aI43
aI50
aI2
aI41
aI31
aI15
aI18
aI-33
aI-16
aI12
aI-24
aI-4
aI-37
aI-43
aI41
aI33
aa(lp37
I-39
aI-25
aI41
aI-40
aI-1
aI-26
aI12
aI12
aI31
aI-34
aI45
aI-26
aI-19
aI50
aI-17
aI-44
aI29
aI41
aI-37
aI-44
aI36
aI43
aI2
aI14
aI-19
aI-36
aI50
aI8
aI-38
aI-46
aI-3
aI12
aI-10
aI0
aI36
aI-38
aI8
aI4
aI33
aI44
aI42
aI42
aI-34
aI44
aI11
aI2
aI15
aI-30
aI42
aI9
aa(lp38
I-31
aI18
aI10
aI-48
aI-48
aI-12
aI-21
aI46
aI38
aI8
aI-37
aI-28
aI21
aI20
aI7
aI36
aI-32
aI6
aI36
aI8
aI-6
aI10
aI14
aI28
aI37
aI-32
aI-36
aI38
aI49
aI-40
aI-42
aI-15
aI5
aI-22
aI31
aI-8
aI1
aI49
aI15
aI-3
aI-39
aI50
aI-46
aI-47
aI-20
aI-25
aI-22
aI-18
aI-49
aI-4
aa(lp39
I47
aI5
aI27
aI40
aI44
aI47
aI8
aI8
aI-4
aI45
aI34
aI-32
aI-2
aI6
aI-26
aI-49
aI-17
aI46
aI-34
aI-17
aI3
aI33
aI-12
aI17
aI13
aI47
aI3
aI-10
aI9
aI-50
aI-44
aI32
aI-18
aI26
aI-11
aI21
aI5
aI-18
aI-26
aI-18
aI-11
aI30
aI29
aI28
aI21
aI-7
aI20
aI27
aI-7
aI33
aa(lp40
I41
aI33
aI-19
aI27
aI-45
aI-22
aI-49
aI-31
aI10
aI1
aI-48
aI13
aI14
aI-23
aI-2
aI26
aI-28
aI20
aI-36
aI1
aI-46
aI33
aI-7
aI47
aI-19
aI13
aI50
aI11
aI39
aI-31
aI-40
aI14
aI-49
aI18
aI-43
aI34
aI45
aI18
aI-8
aI-23
aI-46
aI26
aI28
aI-30
aI-29
aI25
aI-6
aI25
aI-6
aI3
aa(lp41
I-46
aI-27
aI13
aI-31
aI37
aI-33
aI26
aI-34
aI-9
aI-11
aI8
aI39
aI-28
aI35
aI13
aI-26
aI11
aI45
aI44
aI32
aI48
aI-32
aI-26
aI47
aI-21
aI18
aI29
aI-27
aI30
aI48
aI-23
aI-18
aI7
aI17
aI-9
aI-37
aI16
aI-15
aI25
aI19
aI44
aI-46
aI-46
aI-31
aI-26
aI-33
aI45
aI50
aI27
aI24
aa(lp42
I43
aI-50
aI-34
aI-4
aI30
aI11
aI-22
aI-40
aI-40
aI46
aI6
aI25
aI37
aI-31
aI-24
aI-43
aI-49
aI47
aI-48
aI-27
aI43
aI33
aI-8
aI20
aI10
aI26
aI5
aI12
aI38
aI-38
aI23
aI-18
aI-29
aI50
aI-11
aI5
aI-37
aI-7
aI-43
aI22
aI35
aI-8
aI-9
aI-19
aI-50
aI-16
aI-36
aI-23
aI-21
aI-10
aa(lp43
I42
aI-41
aI-30
aI-8
aI-48
aI-45
aI43
aI4
aI11
aI0
aI13
aI27
aI-12
aI45
aI49
aI-35
aI22
aI15
aI12
aI-48
aI-5
aI22
aI22
aI17
aI-19
aI39
aI-30
aI-31
aI18
aI-34
aI15
aI22
aI1
aI-2
aI49
aI-36
aI-28
aI28
aI26
aI-35
aI-45
aI7
aI-24
aI-42
aI-44
aI21
aI-4
aI13
aI14
aI7
aa(lp44
I0
aI-3
aI49
aI11
aI-40
aI-35
aI15
aI41
aI21
aI7
aI26
aI-44
aI-44
aI38
aI5
aI38
aI-15
aI3
aI37
aI-43
aI6
aI16
aI1
aI10
aI-47
aI-35
aI-19
aI45
aI-15
aI44
aI46
aI-23
aI33
aI-9
aI-39
aI-40
aI34
aI7
aI21
aI47
aI-30
aI-24
aI4
aI-30
aI34
aI-13
aI26
aI37
aI47
aI23
aa(lp45
I14
aI-18
aI5
aI-12
aI21
aI2
aI18
aI13
aI11
aI-45
aI-47
aI48
aI24
aI29
aI-35
aI-21
aI16
aI-8
aI-32
aI25
aI-43
aI-28
aI-40
aI-1
aI11
aI-6
aI-8
aI12
aI38
aI36
aI26
aI-9
aI-3
aI9
aI-3
aI37
aI-38
aI33
aI-30
aI22
aI-22
aI30
aI-27
aI40
aI-5
aI-8
aI-39
aI-8
aI40
aI3
aa(lp46
I-47
aI9
aI-2
aI-38
aI6
aI18
aI7
aI7
aI3
aI-30
aI-49
aI39
aI32
aI-11
aI2
aI-46
aI-42
aI-18
aI50
aI10
aI-32
aI-15
aI-6
aI-44
aI10
aI0
aI-18
aI45
aI-9
aI26
aI46
aI10
aI28
aI-27
aI8
aI29
aI45
aI47
aI1
aI33
aI-17
aI42
aI13
aI47
aI-40
aI23
aI24
aI-47
aI27
aI-11
aa(lp47
I-35
aI42
aI39
aI-43
aI35
aI0
aI45
aI-50
aI-49
aI41
aI48
aI-8
aI35
aI25
aI3
aI17
aI-26
aI10
aI-40
aI-14
aI-10
aI-26
aI39
aI-8
aI-45
aI45
aI-21
aI43
aI42
aI-10
aI-41
aI-2
aI26
aI42
aI-33
aI-14
aI37
aI-10
aI-44
aI35
aI36
aI-46
aI-23
aI24
aI-34
aI31
aI13
aI12
aI-38
aI-5
aa(lp48
I26
aI28
aI8
aI-14
aI-21
aI-4
aI14
aI-50
aI-24
aI-26
aI-34
aI44
aI38
aI-34
aI37
aI11
aI38
aI-42
aI-11
aI-39
aI-32
aI-1
aI-23
aI14
aI-37
aI0
aI36
aI-8
aI-31
aI-48
aI16
aI-23
aI39
aI-2
aI-18
aI10
aI-19
aI39
aI50
aI-17
aI-48
aI-15
aI-22
aI41
aI-39
aI35
aI-29
aI16
aI12
aI46
aa(lp49
I30
aI-23
aI-41
aI23
aI2
aI-41
aI19
aI28
aI-42
aI20
aI-38
aI-39
aI-3
aI-30
aI38
aI16
aI21
aI24
aI-8
aI19
aI19
aI22
aI-21
aI-18
aI1
aI38
aI46
aI12
aI-41
aI-20
aI38
aI16
aI22
aI-37
aI5
aI42
aI-47
aI-17
aI23
aI31
aI23
aI18
aI16
aI2
aI-10
aI-25
aI-12
aI23
aI28
aI40
aa(lp50
I-48
aI2
aI-3
aI-11
aI-21
aI23
aI4
aI16
aI34
aI6
aI-14
aI-42
aI-25
aI-11
aI12
aI17
aI7
aI-15
aI9
aI-46
aI-34
aI-43
aI49
aI-20
aI18
aI5
aI-28
aI-39
aI0
aI1
aI2
aI-6
aI4
aI-3
aI-2
aI34
aI-38
aI19
aI31
aI42
aI21
aI-12
aI48
aI23
aI-35
aI27
aI31
aI-8
aI47
aI46
aa(lp51
I-49
aI-14
aI1
aI-37
aI-16
aI-7
aI46
aI6
aI38
aI-24
aI36
aI22
aI-33
aI23
aI27
aI-47
aI45
aI-11
aI45
aI-4
aI9
aI25
aI-18
aI-47
aI-8
aI19
aI32
aI23
aI23
aI-33
aI45
aI47
aI16
aI-15
aI-4
aI17
aI11
aI-5
aI-15
aI41
aI-37
aI-17
aI-19
aI-16
aI32
aI-22
aI38
aI-26
aI-22
aI-29
aa(lp52
I14
aI32
aI1
aI-28
aI-31
aI-16
aI-37
aI4
aI40
aI5
aI-44
aI2
aI-14
aI8
aI25
aI44
aI47
aI25
aI-17
aI45
aI27
aI41
aI-9
aI21
aI-41
aI-15
aI2
aI-28
aI25
aI26
aI4
aI50
aI-6
aI24
aI37
aI-24
aI26
aI-32
aI17
aI26
aI-35
aI8
aI23
aI11
aI33
aI14
aI10
aI7
aI42
aI22
aa(lp53
I46
aI49
aI0
aI21
aI29
aI-2
aI-37
aI18
aI12
aI49
aI-21
aI-32
aI39
aI27
aI22
aI4
aI41
aI-49
aI-40
aI30
aI-37
aI-44
aI13
aI-46
aI-2
aI-24
aI-42
aI-43
aI1
aI35
aI43
aI25
aI-23
aI-19
aI11
aI28
aI33
aI-49
aI-30
aI26
aI2
aI18
aI33
aI-48
aI-24
aI29
aI-21
aI-27
aI21
aI0
aa(lp54
I36
aI35
aI-8
aI-18
aI-44
aI33
aI30
aI-12
aI2
aI-6
aI25
aI-5
aI-15
aI48
aI-22
aI3
aI-47
aI50
aI4
aI40
aI10
aI-34
aI-2
aI-47
aI-50
aI26
aI1
aI13
aI5
aI-24
aI-15
aI32
aI1
aI6
aI-41
aI34
aI-8
aI-25
aI36
aI38
aI-41
aI-34
aI-48
aI2
aI10
aI-46
aI-46
aI-15
aI34
aI-32
aa(lp55
I-19
aI-6
aI17
aI21
aI-11
aI8
aI3
aI-40
aI18
aI31
aI-35
aI14
aI-40
aI47
aI-35
aI-1
aI13
aI37
aI40
aI42
aI-48
aI43
aI26
aI-47
aI-20
aI-5
aI42
aI-13
aI-3
aI0
aI15
aI-12
aI47
aI-12
aI41
aI21
aI-47
aI15
aI39
aI45
aI-8
aI29
aI36
aI19
aI-13
aI32
aI1
aI-40
aI0
aI28
aa(lp56
I-46
aI17
aI33
aI24
aI-42
aI-29
aI-46
aI-6
aI22
aI-40
aI49
aI32
aI3
aI-25
aI47
aI16
aI23
aI19
aI-13
aI28
aI-13
aI43
aI-47
aI-39
aI-25
aI22
aI-5
aI-50
aI-5
aI27
aI32
aI-41
aI-4
aI41
aI-35
aI-47
aI-28
aI2
aI-43
aI-15
aI48
aI-41
aI-42
aI49
aI-24
aI0
aI-26
aI4
aI-32
aI-7
aa(lp57
I-15
aI-38
aI8
aI20
aI6
aI5
aI12
aI-1
aI-21
aI18
aI7
aI-22
aI31
aI3
aI-19
aI25
aI-7
aI31
aI47
aI21
aI16
aI-1
aI44
aI-13
aI49
aI-49
aI5
aI-46
aI2
aI16
aI14
aI40
aI-13
aI39
aI1
aI-30
aI45
aI20
aI-11
aI-4
aI-10
aI25
aI38
aI-47
aI-20
aI-29
aI0
aI-20
aI47
aI26
aa(lp58
I1
aI-47
aI-15
aI47
aI-50
aI7
aI10
aI-9
aI-41
aI1
aI-31
aI50
aI-9
aI-8
aI-26
aI16
aI-17
aI41
aI-44
aI-48
aI-9
aI11
aI-48
aI-23
aI-29
aI31
aI49
aI48
aI-45
aI-35
aI-46
aI34
aI-42
aI33
aI10
aI-3
aI36
aI41
aI-24
aI-18
aI-45
aI-49
aI34
aI-3
aI-32
aI35
aI8
aI-29
aI17
aI25
aa(lp59
I21
aI16
aI24
aI18
aI0
aI-2
aI27
aI-44
aI31
aI45
aI21
aI50
aI-1
aI-1
aI17
aI-49
aI21
aI-10
aI39
aI12
aI-3
aI12
aI-19
aI40
aI-49
aI16
aI-34
aI19
aI40
aI0
aI32
aI-48
aI-33
aI-50
aI-39
aI29
aI-23
aI-16
aI36
aI47
aI-29
aI39
aI19
aI-17
aI-33
aI-19
aI18
aI-37
aI8
aI-28
aa(lp60
I29
aI3
aI-2
aI47
aI9
aI25
aI45
aI19
aI-49
aI49
aI39
aI0
aI29
aI-28
aI6
aI49
aI33
aI11
aI39
aI-40
aI-8
aI-34
aI-26
aI-6
aI-28
aI11
aI27
aI-33
aI14
aI-10
aI7
aI36
aI-27
aI2
aI12
aI38
aI3
aI49
aI-11
aI-7
aI50
aI20
aI-9
aI11
aI43
aI34
aI34
aI-17
aI-45
aI8
aa(lp61
I-8
aI-40
aI23
aI40
aI21
aI4
aI-28
aI-15
aI-26
aI-4
aI10
aI44
aI17
aI-30
aI-25
aI-28
aI49
aI-30
aI-23
aI13
aI3
aI-19
aI-43
aI36
aI35
aI39
aI38
aI43
aI-17
aI34
aI-7
aI26
aI41
aI1
aI-10
aI4
aI39
aI32
aI-35
aI20
aI50
aI-45
aI7
aI40
aI26
aI5
aI6
aI-3
aI7
aI-31
aa(lp62
I-38
aI4
aI-38
aI22
aI-9
aI-42
aI-7
aI-33
aI0
aI33
aI37
aI-12
aI36
aI-9
aI19
aI-2
aI-26
aI-22
aI5
aI36
aI50
aI23
aI16
aI36
aI24
aI-42
aI-18
aI11
aI-49
aI46
aI-5
aI-45
aI48
aI47
aI13
aI-43
aI-32
aI11
aI-29
aI-40
aI-46
aI33
aI50
aI29
aI-14
aI39
aI-45
aI8
aI-19
aI45
aa(lp63
I40
aI11
aI-4
aI-11
aI-15
aI-1
aI-34
aI5
aI-13
aI-17
aI0
aI-31
aI-11
aI-23
aI-7
aI44
aI24
aI-13
aI20
aI1
aI28
aI46
aI7
aI-39
aI-43
aI-21
aI-7
aI-1
aI-33
aI9
aI20
aI22
aI-21
aI-25
aI20
aI6
aI-30
aI-14
aI-10
aI0
aI18
aI-15
aI13
aI-11
aI36
aI48
aI-25
aI3
aI-28
aI-12
aa(lp64
I-47
aI33
aI35
aI-45
aI-5
aI-25
aI-49
aI-21
aI38
aI-49
aI-26
aI11
aI-23
aI-7
aI38
aI-25
aI7
aI49
aI-18
aI-11
aI41
aI-17
aI-21
aI10
aI44
aI-6
aI0
aI-34
aI4
aI-13
aI43
aI26
aI-45
aI6
aI15
aI49
aI-9
aI26
aI-38
aI20
aI-21
aI24
aI-2
aI46
aI-33
aI24
aI-38
aI43
aI-9
aI49
aa(lp65
I6
aI-28
aI36
aI19
aI25
aI42
aI-25
aI1
aI-31
aI-13
aI-39
aI46
aI-6
aI25
aI-33
aI-50
aI-48
aI-9
aI-30
aI5
aI16
aI44
aI36
aI-46
aI-21
aI-10
aI-48
aI-20
aI46
aI30
aI-19
aI-47
aI-38
aI-23
aI-12
aI-38
aI26
aI50
aI38
aI23
aI-25
aI3
aI43
aI-1
aI23
aI35
aI2
aI44
aI49
aI-16
aa(lp66
I42
aI34
aI25
aI-13
aI-26
aI17
aI-11
aI25
aI-5
aI-21
aI-21
aI-20
aI15
aI-43
aI-43
aI21
aI43
aI-39
aI41
aI-16
aI40
aI-35
aI-38
aI26
aI-8
aI17
aI-17
aI-13
aI50
aI-27
aI-19
aI30
aI9
aI4
aI29
aI-48
aI-37
aI-44
aI5
aI35
aI35
aI28
aI-40
aI22
aI-12
aI37
aI43
aI3
aI7
aI10
aa(lp67
I2
aI12
aI-38
aI-8
aI33
aI22
aI-39
aI49
aI43
aI41
aI2
aI-29
aI10
aI16
aI7
aI28
aI32
aI-20
aI-7
aI-9
aI3
aI15
aI-10
aI-38
aI-38
aI-37
aI5
aI6
aI-9
aI13
aI23
aI-11
aI-10
aI50
aI-15
aI-39
aI-1
aI44
aI3
aI39
aI-22
aI32
aI25
aI43
aI-35
aI34
aI-7
aI-13
aI-5
aI-33
aa(lp68
I0
aI-44
aI29
aI2
aI-40
aI-12
aI9
aI-46
aI5
aI-10
aI-19
aI36
aI28
aI-27
aI15
aI-5
aI-18
aI42
aI-13
aI-25
aI-49
aI37
aI-47
aI15
aI-8
aI-35
aI-36
aI-24
aI47
aI-11
aI-2
aI13
aI20
aI-45
aI-2
aI-14
aI-32
aI-27
aI16
aI17
aI-17
aI17
aI-33
aI-16
aI-16
aI-39
aI15
aI-20
aI0
aI-50
aa(lp69
I2
aI-14
aI-19
aI26
aI50
aI-26
aI-40
aI31
aI25
aI18
aI-23
aI43
aI33
aI-14
aI29
aI-24
aI-20
aI-17
aI-50
aI-5
aI-34
aI20
aI46
aI-22
aI44
aI3
aI-13
aI2
aI27
aI11
aI7
aI30
aI32
aI-32
aI-22
aI-7
aI10
aI29
aI-24
aI-32
aI-25
aI32
aI-1
aI9
aI33
aI7
aI-8
aI29
aI-47
aI19
aa(lp70
I17
aI30
aI31
aI9
aI-5
aI16
aI-41
aI45
aI-21
aI49
aI30
aI-33
aI27
aI-10
aI-30
aI-15
aI46
aI15
aI-3
aI-19
aI9
aI37
aI48
aI-43
aI33
aI10
aI-31
aI37
aI-36
aI23
aI-19
aI-14
aI-35
aI25
aI39
aI-38
aI-40
aI-1
aI-14
aI38
aI-9
aI-3
aI-35
aI1
aI47
aI-19
aI-30
aI-14
aI6
aI-18
aa(lp71
I5
aI6
aI-18
aI-43
aI-48
aI-43
aI-3
aI-33
aI16
aI17
aI1
aI8
aI16
aI34
aI-29
aI-38
aI-39
aI10
aI-21
aI-2
aI-36
aI-49
aI-23
aI2
aI-44
aI6
aI-5
aI35
aI-30
aI-34
aI40
aI16
aI1
aI49
aI37
aI-33
aI13
aI-45
aI46
aI11
aI-9
aI-29
aI-50
aI8
aI-34
aI30
aI0
aI-41
aI-1
aI-4
aa(lp72
I-16
aI-9
aI-15
aI43
aI-24
aI-12
aI-39
aI41
aI45
aI47
aI9
aI49
aI-34
aI37
aI1
aI14
aI30
aI-40
aI46
aI-15
aI-42
aI1
aI40
aI26
aI45
aI21
aI-48
aI49
aI-40
aI26
aI-7
aI-35
aI24
aI-30
aI0
aI-2
aI-28
aI-34
aI-38
aI-22
aI36
aI-25
aI-26
aI4
aI40
aI14
aI20
aI-31
aI-25
aI-40
aa(lp73
I43
aI43
aI2
aI25
aI50
aI10
aI-7
aI5
aI-36
aI-29
aI-32
aI15
aI-38
aI3
aI-36
aI2
aI-9
aI-24
aI10
aI6
aI-25
aI17
aI43
aI42
aI-11
aI35
aI28
aI-17
aI-50
aI40
aI25
aI-7
aI20
aI-34
aI-46
aI41
aI18
aI0
aI-44
aI-6
aI-24
aI22
aI-24
aI8
aI37
aI11
aI0
aI13
aI44
aI-38
aa(lp74
I-6
aI-50
aI-20
aI-18
aI-39
aI-28
aI47
aI-10
aI22
aI-5
aI-6
aI-40
aI-28
aI-5
aI-8
aI29
aI-32
aI-19
aI19
aI-5
aI-19
aI9
aI-13
aI25
aI-22
aI6
aI-22
aI-33
aI43
aI26
aI34
aI-16
aI21
aI10
aI19
aI-30
aI17
aI-35
aI-48
aI-25
aI-28
aI4
aI-1
aI-17
aI-31
aI36
aI25
aI-48
aI20
aI47
aa(lp75
I37
aI32
aI6
aI-20
aI8
aI32
aI13
aI32
aI45
aI-7
aI-4
aI-28
aI-25
aI-9
aI-21
aI21
aI-37
aI-48
aI-17
aI22
aI29
aI32
aI8
aI39
aI40
aI20
aI28
aI13
aI45
aI14
aI41
aI-40
aI24
aI-37
aI-33
aI11
aI29
aI-22
aI2
aI30
aI31
aI-20
aI4
aI15
aI1
aI-17
aI-3
aI7
aI46
aI22
aa(lp76
I13
aI28
aI39
aI50
aI1
aI-22
aI-40
aI10
aI40
aI13
aI-16
aI-40
aI27
aI-16
aI32
aI25
aI-28
aI-33
aI48
aI20
aI-46
aI48
aI28
aI-42
aI23
aI17
aI33
aI35
aI21
aI24
aI26
aI10
aI30
aI-13
aI-14
aI-40
aI-11
aI-22
aI9
aI21
aI-40
aI-4
aI-23
aI7
aI41
aI-29
aI-44
aI26
aI43
aI7
aa(lp77
I39
aI-45
aI30
aI-48
aI38
aI8
aI14
aI-26
aI19
aI-48
aI-42
aI-14
aI-1
aI46
aI-20
aI-40
aI4
aI50
aI43
aI-41
aI-48
aI36
aI37
aI43
aI-46
aI-7
aI-17
aI45
aI29
aI-21
aI14
aI-28
aI3
aI-32
aI-8
aI19
aI47
aI-40
aI-25
aI25
aI42
aI47
aI-47
aI-10
aI-28
aI8
aI-4
aI11
aI26
aI14
aa(lp78
I-6
aI-6
aI50
aI-1
aI29
aI27
aI-3
aI7
aI50
aI-50
aI-6
aI-47
aI42
aI5
aI-49
aI2
aI-18
aI20
aI-24
aI-50
aI-17
aI45
aI10
aI-31
aI-26
aI-14
aI28
aI44
aI-24
aI46
aI-10
aI47
aI-18
aI12
aI47
aI4
aI-1
aI-29
aI-4
aI21
aI38
aI-32
aI-15
aI-40
aI49
aI-2
aI39
aI-30
aI34
aI17
aa(lp79
I-6
aI4
aI31
aI41
aI-30
aI-49
aI-10
aI36
aI-50
aI9
aI-34
aI16
aI1
aI-22
aI24
aI-8
aI-20
aI-27
aI-18
aI-14
aI4
aI48
aI44
aI-14
aI-2
aI-13
aI-41
aI36
aI36
aI20
aI30
aI23
aI-8
aI-35
aI32
aI-26
aI26
aI8
aI27
aI-36
aI-9
aI36
aI-46
aI24
aI42
aI35
aI8
aI25
aI-36
aI2
aa(lp80
I4
aI-29
aI-37
aI-1
aI-19
aI12
aI41
aI-29
aI48
aI-48
aI38
aI36
aI5
aI-45
aI-18
aI33
aI39
aI-38
aI-41
aI14
aI36
aI-24
aI-22
aI14
aI48
aI23
aI-47
aI-9
aI-26
aI-45
aI28
aI-35
aI-27
aI35
aI-44
aI23
aI48
aI7
aI12
aI42
aI18
aI7
aI-13
aI15
aI12
aI-42
aI-45
aI-48
aI-8
aI32
aa(lp81
I-1
aI12
aI-37
aI25
aI-10
aI21
aI7
aI5
aI-22
aI27
aI-35
aI47
aI17
aI8
aI-15
aI-38
aI29
aI-32
aI45
aI-37
aI7
aI-40
aI-15
aI40
aI27
aI-36
aI-44
aI-27
aI-9
aI35
aI-43
aI8
aI-1
aI23
aI-4
aI-37
aI6
aI42
aI47
aI7
aI-31
aI-31
aI-33
aI22
aI-50
aI6
aI-10
aI-31
aI-47
aI20
aa(lp82
I-39
aI50
aI-31
aI-43
aI6
aI25
aI-40
aI12
aI44
aI3
aI-27
aI-45
aI-22
aI-18
aI45
aI-48
aI-3
aI-13
aI16
aI37
aI0
aI-30
aI8
aI41
aI5
aI-12
aI37
aI27
aI16
aI-42
aI-37
aI-41
aI39
aI45
aI44
aI-47
aI10
aI-34
aI-38
aI-11
aI-9
aI-5
aI15
aI-31
aI-12
aI-42
aI-11
aI-22
aI0
aI14
aa(lp83
I16
aI14
aI14
aI-48
aI49
aI44
aI12
aI-48
aI22
aI-23
aI-37
aI-18
aI35
aI16
aI-37
aI-5
aI23
aI-50
aI-50
aI20
aI-24
aI-7
aI35
aI-33
aI5
aI-19
aI-6
aI36
aI-24
aI-1
aI24
aI34
aI-5
aI4
aI-15
aI-41
aI28
aI-7
aI-25
aI37
aI-42
aI-23
aI-22
aI1
aI-9
aI25
aI45
aI14
aI-14
aI44
aa(lp84
I-28
aI-42
aI43
aI-8
aI-44
aI4
aI-12
aI-47
aI13
aI-3
aI42
aI-37
aI1
aI6
aI-40
aI46
aI32
aI39
aI9
aI2
aI25
aI21
aI-49
aI38
aI-10
aI42
aI-49
aI27
aI18
aI-48
aI19
aI-14
aI21
aI-14
aI0
aI-24
aI-30
aI-4
aI27
aI30
aI31
aI10
aI42
aI19
aI44
aI7
aI-45
aI-25
aI-36
aI37
aa(lp85
I-25
aI44
aI48
aI4
aI12
aI-6
aI4
aI-24
aI-35
aI43
aI22
aI-19
aI5
aI3
aI-12
aI11
aI45
aI37
aI-8
aI22
aI-3
aI-28
aI25
aI29
aI-32
aI-27
aI31
aI4
aI42
aI-40
aI1
aI-41
aI19
aI-2
aI-49
aI-24
aI-26
aI-11
aI-10
aI-37
aI-21
aI26
aI-8
aI37
aI-32
aI28
aI-34
aI41
aI-27
aI-49
aa(lp86
I-1
aI4
aI16
aI-13
aI-26
aI24
aI-15
aI-13
aI-28
aI-19
aI-46
aI16
aI24
aI43
aI-9
aI5
aI9
aI-39
aI-11
aI45
aI48
aI-37
aI27
aI26
aI13
aI-1
aI-39
aI-50
aI28
aI19
aI-27
aI38
aI10
aI3
aI-25
aI-22
aI41
aI44
aI19
aI21
aI43
aI-11
aI12
aI-16
aI-44
aI-27
aI18
aI-18
aI-48
aI5
aa(lp87
I29
aI43
aI39
aI40
aI22
aI46
aI21
aI14
aI-13
aI41
aI-25
aI-8
aI-15
aI40
aI-39
aI33
aI-39
aI-38
aI-44
aI-50
aI43
aI-44
aI-47
aI-27
aI-31
aI28
aI-36
aI-50
aI30
aI7
aI-8
aI15
aI-17
aI-28
aI-42
aI26
aI-10
aI-1
aI-36
aI-14
aI-29
aI-34
aI-23
aI-46
aI14
aI-40
aI23
aI12
aI29
aI-39
aa(lp88
I-29
aI32
aI48
aI-29
aI-9
aI50
aI-22
aI-12
aI21
aI15
aI7
aI7
aI50
aI-37
aI-5
aI30
aI-50
aI48
aI-10
aI29
aI27
aI-46
aI-38
aI-35
aI-1
aI-12
aI40
aI-3
aI-1
aI-14
aI19
aI-13
aI48
aI42
aI-36
aI6
aI32
aI34
aI47
aI12
aI13
aI33
aI9
aI-13
aI14
aI1
aI39
aI26
aI-5
aI11
aa(lp89
I47
aI-4
aI2
aI48
aI-7
aI-40
aI39
aI-46
aI9
aI-7
aI16
aI-24
aI-46
aI5
aI26
aI48
aI-28
aI-5
aI-28
aI-31
aI-44
aI-25
aI45
aI-20
aI-7
aI11
aI2
aI-8
aI-27
aI-19
aI6
aI-41
aI48
aI-50
aI-42
aI-6
aI-44
aI-27
aI18
aI26
aI13
aI-6
aI-49
aI19
aI44
aI46
aI0
aI-9
aI35
aI-22
aa(lp90
I-29
aI0
aI-29
aI6
aI43
aI-45
aI6
aI-25
aI35
aI-44
aI-31
aI22
aI-15
aI2
aI-14
aI-49
aI-6
aI-41
aI9
aI-23
aI36
aI48
aI11
aI-19
aI21
aI26
aI24
aI6
aI24
aI-50
aI-42
aI-44
aI-48
aI19
aI29
aI-35
aI-33
aI31
aI-8
aI50
aI-8
aI-31
aI-44
aI-45
aI48
aI7
aI17
aI-45
aI28
aI0
aa(lp91
I30
aI-8
aI48
aI43
aI10
aI22
aI-27
aI44
aI-49
aI-45
aI41
aI-7
aI22
aI43
aI20
aI-50
aI-26
aI-43
aI-11
aI42
aI-17
aI-33
aI-13
aI48
aI-42
aI-38
aI19
aI31
aI43
aI36
aI-27
aI45
aI7
aI-45
aI-4
aI-18
aI27
aI6
aI-19
aI-18
aI7
aI-31
aI-36
aI-31
aI-6
aI-38
aI-14
aI-8
aI-8
aI-20
aa(lp92
I45
aI23
aI-9
aI-23
aI34
aI-40
aI-13
aI37
aI23
aI13
aI-28
aI31
aI44
aI-13
aI12
aI-2
aI20
aI6
aI36
aI-5
aI-22
aI1
aI-38
aI27
aI13
aI8
aI14
aI20
aI40
aI21
aI-38
aI-41
aI-19
aI4
aI-31
aI4
aI33
aI-1
aI-30
aI-4
aI-13
aI17
aI25
aI-42
aI-12
aI17
aI39
aI15
aI-3
aI-46
aa(lp93
I-3
aI-37
aI45
aI13
aI-20
aI31
aI28
aI-36
aI-8
aI32
aI48
aI45
aI-21
aI-13
aI6
aI-16
aI36
aI-19
aI-46
aI34
aI-50
aI-24
aI-7
aI30
aI-46
aI12
aI-25
aI21
aI-31
aI-4
aI19
aI-33
aI15
aI-17
aI-29
aI22
aI34
aI6
aI-21
aI0
aI-19
aI29
aI49
aI24
aI8
aI21
aI-23
aI-16
aI-41
aI42
aa(lp94
I-30
aI48
aI34
aI4
aI-9
aI-4
aI1
aI-32
aI2
aI32
aI16
aI-48
aI-50
aI28
aI50
aI-11
aI-16
aI11
aI28
aI-47
aI23
aI-14
aI-8
aI3
aI3
aI-11
aI-26
aI-37
aI45
aI-21
aI24
aI-12
aI-45
aI21
aI-22
aI-18
aI50
aI46
aI-13
aI49
aI-1
aI-19
aI42
aI44
aI30
aI28
aI42
aI6
aI-17
aI18
aa(lp95
I-37
aI22
aI8
aI42
aI49
aI-5
aI22
aI-1
aI-45
aI32
aI-31
aI-8
aI6
aI-3
aI-26
aI1
aI-20
aI-21
aI12
aI-33
aI-3
aI-36
aI-43
aI-33
aI-17
aI25
aI-46
aI46
aI-2
aI-33
aI-1
aI14
aI-35
aI15
aI34
aI46
aI23
aI-40
aI-4
aI-4
aI-19
aI-14
aI-25
aI43
aI11
aI-1
aI10
aI-20
aI32
aI-26
aa(lp96
I47
aI43
aI50
aI-16
aI-46
aI-17
aI-20
aI-44
aI43
aI-47
aI16
aI-21
aI-50
aI10
aI-15
aI-2
aI-20
aI41
aI-26
aI-11
aI-18
aI-16
aI16
aI19
aI-14
aI-22
aI-36
aI-2
aI26
aI-4
aI-8
aI-40
aI30
aI-18
aI25
aI-10
aI3
aI31
aI-43
aI-28
aI48
aI-44
aI21
aI-18
aI32
aI33
aI-4
aI-10
aI30
aI-5
aa(lp97
I47
aI-25
aI-25
aI-30
aI-32
aI-36
aI18
aI24
aI15
aI41
aI-5
aI-3
aI-48
aI-5
aI11
aI-20
aI-2
aI47
aI15
aI30
aI-5
aI35
aI-27
aI-2
aI6
aI-22
aI48
aI44
aI28
aI23
aI-46
aI25
aI18
aI-36
aI31
aI-48
aI17
aI-13
aI-44
aI33
aI13
aI0
aI41
aI44
aI-29
aI46
aI-6
aI2
aI-10
aI15
aa(lp98
I-15
aI-34
aI41
aI6
aI-7
aI22
aI14
aI-19
aI-9
aI-25
aI-30
aI-16
aI-48
aI-20
aI-34
aI-23
aI43
aI49
aI2
aI8
aI31
aI26
aI-17
aI29
aI6
aI-10
aI-47
aI-4
aI12
aI-8
aI-15
aI37
aI-43
aI37
aI31
aI-18
aI-13
aI-8
aI5
aI45
aI-17
aI3
aI23
aI-2
aI12
aI41
aI-41
aI20
aI-21
aI19
aa(lp99
I-22
aI-24
aI29
aI26
aI-15
aI8
aI20
aI-31
aI0
aI35
aI-28
aI48
aI22
aI-43
aI24
aI17
aI48
aI-38
aI-10
aI28
aI39
aI39
aI-39
aI-1
aI-41
aI49
aI-32
aI44
aI-34
aI25
aI-27
aI-32
aI-14
aI16
aI-41
aI30
aI-20
aI23
aI-7
aI-27
aI-46
aI-18
aI20
aI-37
aI47
aI-26
aI-43
aI-11
aI-30
aI-21
aa(lp100
I20
aI15
aI-12
aI50
aI30
aI46
aI15
aI33
aI-26
aI33
aI40
aI27
aI-25
aI-13
aI19
aI28
aI-18
aI-21
aI-43
aI2
aI16
aI-13
aI-2
aI41
aI-13
aI3
aI-44
aI-30
aI13
aI39
aI9
aI3
aI-47
aI-49
aI-50
aI22
aI42
aI39
aI3
aI37
aI29
aI40
aI-21
aI2
aI45
aI17
aI-28
aI24
aI36
aI3
aa.