(lp0
(lp1
I6
aI32
aI47
aI-10
aI23
aI48
aI35
aI42
aI2
aI54
aI54
aI-28
aI5
aI38
aI-26
aI-56
aI-39
aI9
aI-2
aI-58
aI-43
aI-1
aI42
aI18
aI30
aI33
aI-11
aI7
aI19
aI41
aI6
aI-11
aI-2
aI-26
aI44
aI41
aI-14
aI0
aI-6
aI53
aI47
aI-43
aI-14
aI-41
aI18
aI48
aI-47
aI37
aI4
aI-6
aI32
aI31
aI-44
aI55
aI-51
aI-7
aI31
aI-21
aI-19
aI55
aa(lp2
I11
aI58
aI-60
aI-13
aI36
aI38
aI13
aI5
aI-30
aI25
aI-18
aI-12
aI-40
aI28
aI-36
aI24
aI-46
aI35
aI51
aI-52
aI33
aI-33
aI-12
aI-60
aI39
aI-5
aI52
aI16
aI-35
aI41
aI-52
aI40
aI44
aI1
aI-40
aI55
aI-58
aI-19
aI30
aI48
aI18
aI34
aI-39
aI-4
aI-19
aI22
aI27
aI26
aI59
aI-4
aI19
aI22
aI-52
aI-16
aI-7
aI27
aI10
aI-19
aI20
aI-35
aa(lp3
I-40
aI-28
aI-23
aI26
aI-11
aI-60
aI39
aI-44
aI-36
aI1
aI15
aI-48
aI43
aI32
aI7
aI-22
aI-31
aI22
aI11
aI-50
aI-54
aI16
aI33
aI-11
aI43
aI-4
aI57
aI-49
aI8
aI-57
aI-38
aI16
aI13
aI-22
aI46
aI-45
aI-28
aI39
aI39
aI45
aI-29
aI-40
aI57
aI-6
aI50
aI38
aI46
aI48
aI43
aI59
aI-23
aI40
aI22
aI-42
aI-45
aI-36
aI-27
aI-51
aI-29
aI39
aa(lp4
I-20
aI-11
aI-39
aI-53
aI-29
aI-22
aI41
aI-57
aI31
aI-32
aI1
aI24
aI21
aI-43
aI-10
aI-58
aI33
aI28
aI29
aI60
aI-5
aI29
aI-9
aI21
aI-10
aI53
aI-14
aI57
aI60
aI31
aI-7
aI-50
aI53
aI51
aI52
aI37
aI50
aI43
aI40
aI41
aI-7
aI-4
aI25
aI47
aI-44
aI4
aI48
aI17
aI-31
aI56
aI-26
aI-52
aI-28
aI-48
aI19
aI13
aI-2
aI33
aI51
aI-27
aa(lp5
I41
aI-47
aI-52
aI-44
aI-37
aI59
aI-59
aI49
aI58
aI60
aI32
aI-18
aI-46
aI-60
aI-19
aI47
aI-31
aI-25
aI20
aI21
aI-34
aI3
aI30
aI-15
aI-23
aI-38
aI38
aI6
aI41
aI0
aI39
aI30
aI46
aI6
aI-27
aI-44
aI39
aI17
aI-52
aI-13
aI3
aI41
aI-22
aI51
aI60
aI-4
aI36
aI-44
aI-32
aI5
aI0
aI30
aI-51
aI-8
aI7
aI-11
aI54
aI-55
aI-34
aI19
aa(lp6
I50
aI26
aI-4
aI4
aI-15
aI26
aI10
aI-20
aI-24
aI59
aI37
aI28
aI2
aI-20
aI11
aI-11
aI2
aI-19
aI22
aI-48
aI31
aI57
aI27
aI-4
aI-10
aI28
aI-46
aI-18
aI44
aI-42
aI33
aI-31
aI24
aI10
aI-44
aI-17
aI18
aI14
aI16
aI16
aI6
aI16
aI26
aI13
aI50
aI-48
aI23
aI19
aI-47
aI29
aI-54
aI-45
aI-6
aI-3
aI-3
aI-42
aI-36
aI-21
aI30
aI-49
aa(lp7
I3
aI47
aI37
aI-19
aI-37
aI-48
aI38
aI26
aI-17
aI45
aI-27
aI38
aI52
aI55
aI3
aI56
aI24
aI5
aI6
aI-13
aI9
aI44
aI57
aI56
aI-19
aI12
aI30
aI-33
aI-44
aI-34
aI13
aI-50
aI-21
aI-44
aI25
aI43
aI18
aI-55
aI25
aI54
aI-36
aI-2
aI-35
aI-34
aI58
aI-50
aI18
aI45
aI-41
aI-18
aI15
aI23
aI36
aI16
aI-23
aI-8
aI10
aI39
aI-23
aI21
aa(lp8
I-45
aI48
aI-38
aI-29
aI-17
aI34
aI41
aI44
aI48
aI45
aI3
aI-51
aI16
aI10
aI18
aI-2
aI-47
aI27
aI22
aI-27
aI-40
aI-56
aI-28
aI-39
aI42
aI1
aI-41
aI57
aI-43
aI50
aI39
aI-6
aI-20
aI-38
aI4
aI-58
aI-37
aI46
aI28
aI-57
aI-50
aI9
aI43
aI44
aI42
aI58
aI53
aI-15
aI-5
aI55
aI27
aI-58
aI-41
aI22
aI55
aI43
aI37
aI-15
aI25
aI5
aa(lp9
I59
aI47
aI-33
aI-19
aI-46
aI47
aI-3
aI37
aI47
aI33
aI12
aI-37
aI9
aI-22
aI3
aI-18
aI2
aI12
aI34
aI10
aI-34
aI26
aI-33
aI-25
aI40
aI15
aI26
aI-6
aI-22
aI10
aI-26
aI-42
aI-36
aI-33
aI-13
aI3
aI18
aI-24
aI24
aI28
aI-51
aI37
aI-33
aI-56
aI42
aI-42
aI50
aI-4
aI-2
aI-53
aI0
aI-6
aI14
aI-3
aI30
aI0
aI-22
aI-52
aI-57
aI-31
aa(lp10
I24
aI25
aI29
aI31
aI50
aI-34
aI8
aI37
aI59
aI-5
aI-10
aI40
aI35
aI-53
aI-48
aI13
aI-41
aI-25
aI4
aI11
aI22
aI-23
aI60
aI-29
aI19
aI34
aI-28
aI-24
aI22
aI-54
aI-3
aI13
aI12
aI22
aI-8
aI9
aI20
aI41
aI-29
aI-8
aI-30
aI41
aI-22
aI-41
aI44
aI-6
aI-32
aI10
aI11
aI-33
aI31
aI-35
aI24
aI-17
aI29
aI40
aI47
aI-14
aI33
aI-55
aa(lp11
I-39
aI-48
aI1
aI-20
aI-44
aI49
aI49
aI-6
aI-23
aI30
aI-14
aI-20
aI-20
aI-15
aI-30
aI27
aI21
aI0
aI15
aI-25
aI54
aI60
aI-40
aI41
aI-29
aI46
aI13
aI20
aI34
aI20
aI42
aI-2
aI-34
aI-42
aI-47
aI-38
aI16
aI38
aI36
aI27
aI50
aI-46
aI-12
aI-45
aI27
aI25
aI46
aI35
aI-28
aI13
aI-41
aI-6
aI-2
aI-2
aI31
aI-28
aI28
aI43
aI-30
aI52
aa(lp12
I-49
aI-48
aI-44
aI-60
aI7
aI46
aI-8
aI38
aI50
aI-27
aI-31
aI-7
aI-41
aI58
aI53
aI22
aI5
aI-38
aI-10
aI-9
aI-56
aI-18
aI10
aI-44
aI-38
aI-36
aI-45
aI-48
aI-58
aI49
aI-44
aI-25
aI-41
aI-28
aI7
aI33
aI-34
aI-16
aI-7
aI-34
aI26
aI4
aI-15
aI-28
aI-34
aI-28
aI-45
aI32
aI3
aI-51
aI53
aI-36
aI58
aI-27
aI34
aI-54
aI37
aI-43
aI-37
aI-25
aa(lp13
I42
aI59
aI57
aI-30
aI-59
aI30
aI51
aI-14
aI-18
aI-14
aI-37
aI-4
aI48
aI26
aI24
aI-21
aI-34
aI-44
aI-6
aI-26
aI20
aI-48
aI27
aI35
aI0
aI58
aI-21
aI0
aI17
aI19
aI7
aI44
aI1
aI-46
aI12
aI1
aI-44
aI-56
aI-44
aI-9
aI-7
aI-1
aI52
aI-9
aI49
aI60
aI19
aI-52
aI8
aI-8
aI-18
aI-11
aI-58
aI-26
aI-35
aI31
aI-20
aI58
aI12
aI4
aa(lp14
I-57
aI-23
aI-53
aI45
aI-21
aI55
aI-60
aI-53
aI39
aI-22
aI55
aI41
aI4
aI-9
aI-5
aI-58
aI34
aI26
aI-14
aI-25
aI-22
aI-23
aI42
aI51
aI43
aI44
aI18
aI7
aI60
aI-3
aI45
aI41
aI-12
aI39
aI26
aI-26
aI-11
aI7
aI-18
aI-3
aI52
aI-55
aI-58
aI13
aI-43
aI-28
aI60
aI-23
aI38
aI-7
aI60
aI-1
aI-29
aI-33
aI-15
aI-3
aI5
aI-31
aI35
aI-43
aa(lp15
I5
aI4
aI60
aI19
aI52
aI36
aI57
aI12
aI-17
aI51
aI40
aI21
aI-38
aI0
aI-8
aI-53
aI5
aI-22
aI8
aI8
aI-12
aI41
aI-40
aI-4
aI-38
aI34
aI-20
aI27
aI1
aI21
aI24
aI-33
aI5
aI15
aI-49
aI-36
aI42
aI15
aI25
aI39
aI-5
aI19
aI-55
aI46
aI-21
aI-49
aI37
aI30
aI49
aI30
aI-29
aI-45
aI-47
aI-22
aI-32
aI-59
aI-23
aI-50
aI0
aI34
aa(lp16
I-43
aI60
aI27
aI-22
aI-10
aI10
aI-28
aI-47
aI3
aI-22
aI-33
aI50
aI-20
aI-17
aI-50
aI-1
aI-52
aI-59
aI-21
aI-52
aI56
aI-14
aI46
aI-28
aI43
aI-60
aI-30
aI-33
aI-15
aI-29
aI31
aI-15
aI-12
aI-57
aI2
aI40
aI21
aI9
aI5
aI11
aI7
aI4
aI30
aI-43
aI-56
aI-56
aI-39
aI14
aI-33
aI21
aI58
aI47
aI5
aI22
aI-29
aI53
aI3
aI57
aI-6
aI12
aa(lp17
I23
aI-45
aI-17
aI-32
aI-60
aI-24
aI37
aI32
aI-56
aI-8
aI-28
aI-28
aI42
aI-43
aI48
aI-47
aI2
aI34
aI-45
aI6
aI-51
aI26
aI-40
aI-50
aI10
aI-36
aI45
aI-28
aI30
aI45
aI6
aI21
aI-18
aI-6
aI-54
aI48
aI40
aI24
aI-34
aI-4
aI18
aI53
aI7
aI55
aI-15
aI10
aI-29
aI-25
aI10
aI-28
aI16
aI54
aI-49
aI-9
aI-27
aI-7
aI-13
aI-60
aI-24
aI60
aa(lp18
I35
aI25
aI-1
aI-14
aI-4
aI-60
aI-50
aI5
aI-54
aI12
aI-49
aI60
aI-16
aI-43
aI21
aI-49
aI-4
aI55
aI39
aI38
aI34
aI34
aI-40
aI45
aI-32
aI-35
aI-25
aI11
aI-42
aI-26
aI-39
aI20
aI37
aI-8
aI12
aI-4
aI9
aI-17
aI-2
aI-56
aI41
aI-30
aI30
aI-13
aI31
aI14
aI60
aI-60
aI-51
aI-16
aI-59
aI-43
aI34
aI29
aI-54
aI38
aI29
aI-12
aI4
aI-47
aa(lp19
I35
aI26
aI-4
aI32
aI22
aI-24
aI51
aI47
aI-24
aI-13
aI18
aI45
aI34
aI60
aI-31
aI8
aI-27
aI-1
aI49
aI2
aI-35
aI23
aI50
aI44
aI-57
aI-29
aI36
aI-49
aI59
aI36
aI-22
aI1
aI-55
aI31
aI-5
aI-60
aI7
aI-1
aI29
aI-43
aI10
aI-2
aI33
aI23
aI-15
aI25
aI-41
aI42
aI50
aI-4
aI-4
aI13
aI50
aI-23
aI39
aI-54
aI-30
aI2
aI0
aI-29
aa(lp20
I-7
aI-11
aI-35
aI42
aI9
aI7
aI40
aI37
aI48
aI-50
aI-10
aI45
aI-18
aI44
aI-45
aI-48
aI6
aI5
aI-57
aI-42
aI-30
aI19
aI-4
aI-36
aI-8
aI38
aI60
aI42
aI-46
aI52
aI-2
aI59
aI46
aI-45
aI-39
aI-4
aI-39
aI5
aI-51
aI-3
aI-50
aI-9
aI-16
aI20
aI56
aI11
aI-17
aI1
aI48
aI-45
aI15
aI-58
aI-17
aI43
aI-38
aI17
aI-35
aI-38
aI59
aI50
aa(lp21
I43
aI-14
aI-7
aI-53
aI-54
aI-39
aI-23
aI-17
aI-35
aI2
aI-41
aI-45
aI60
aI23
aI-36
aI25
aI31
aI-38
aI-14
aI28
aI10
aI39
aI57
aI11
aI13
aI46
aI-56
aI-21
aI5
aI54
aI-48
aI47
aI13
aI40
aI-59
aI-19
aI-56
aI-24
aI35
aI49
aI8
aI55
aI-31
aI-20
aI28
aI-24
aI26
aI-10
aI30
aI34
aI-8
aI-22
aI-18
aI-15
aI-7
aI-48
aI57
aI29
aI-41
aI33
aa(lp22
I-2
aI-51
aI-45
aI58
aI-54
aI1
aI-30
aI0
aI-41
aI-59
aI-39
aI17
aI35
aI9
aI-23
aI-52
aI-23
aI35
aI41
aI22
aI8
aI-12
aI40
aI-32
aI-10
aI23
aI5
aI-36
aI52
aI-49
aI-39
aI-43
aI-36
aI-33
aI-22
aI-57
aI-25
aI-20
aI46
aI-17
aI-54
aI-50
aI18
aI57
aI18
aI42
aI-40
aI25
aI-21
aI-28
aI-9
aI-58
aI-8
aI40
aI57
aI-31
aI45
aI10
aI50
aI-34
aa(lp23
I3
aI54
aI9
aI9
aI-24
aI37
aI-35
aI3
aI17
aI15
aI-31
aI-59
aI-10
aI-43
aI54
aI12
aI55
aI-60
aI-51
aI-39
aI49
aI47
aI-11
aI-42
aI53
aI-52
aI44
aI-13
aI-7
aI-59
aI-13
aI-46
aI-17
aI-19
aI6
aI6
aI41
aI-2
aI35
aI-9
aI-37
aI6
aI-25
aI12
aI23
aI-27
aI60
aI25
aI-59
aI-24
aI42
aI18
aI8
aI9
aI18
aI-5
aI4
aI19
aI48
aI-22
aa(lp24
I23
aI-54
aI5
aI48
aI60
aI27
aI29
aI-21
aI-15
aI28
aI-49
aI10
aI37
aI-12
aI6
aI-38
aI28
aI24
aI-9
aI29
aI-13
aI-57
aI41
aI38
aI32
aI51
aI54
aI-9
aI-20
aI-31
aI43
aI-23
aI-57
aI46
aI47
aI28
aI-36
aI56
aI21
aI-14
aI13
aI-17
aI-55
aI29
aI-26
aI27
aI20
aI-58
aI-48
aI-26
aI3
aI-30
aI-59
aI-1
aI-37
aI-51
aI6
aI39
aI16
aI43
aa(lp25
I23
aI28
aI32
aI11
aI59
aI3
aI54
aI-1
aI33
aI56
aI27
aI-30
aI-28
aI20
aI-55
aI-26
aI-59
aI37
aI53
aI-39
aI9
aI-18
aI-47
aI-47
aI-40
aI56
aI-6
aI-28
aI-50
aI49
aI37
aI21
aI39
aI-54
aI54
aI-5
aI32
aI16
aI-58
aI-50
aI18
aI22
aI-35
aI-14
aI-34
aI-21
aI17
aI-18
aI48
aI-25
aI42
aI-56
aI-56
aI-42
aI26
aI-28
aI35
aI48
aI9
aI58
aa(lp26
I-38
aI-7
aI-31
aI21
aI-58
aI-51
aI-25
aI25
aI-24
aI-16
aI35
aI-39
aI33
aI6
aI-27
aI43
aI-57
aI51
aI-33
aI24
aI29
aI33
aI-35
aI18
aI9
aI14
aI-57
aI60
aI36
aI55
aI-2
aI8
aI22
aI31
aI-14
aI-21
aI45
aI47
aI31
aI5
aI47
aI-47
aI-8
aI-13
aI-17
aI14
aI50
aI30
aI-48
aI-22
aI58
aI-15
aI58
aI5
aI2
aI-32
aI37
aI44
aI22
aI59
aa(lp27
I4
aI-52
aI-45
aI-36
aI58
aI32
aI55
aI50
aI-22
aI2
aI-42
aI-37
aI-54
aI-56
aI58
aI-59
aI-6
aI-13
aI40
aI-4
aI16
aI44
aI57
aI42
aI4
aI20
aI13
aI-42
aI-59
aI13
aI-44
aI39
aI-9
aI-4
aI-42
aI40
aI22
aI0
aI-41
aI-58
aI32
aI-22
aI-42
aI46
aI-17
aI16
aI-13
aI-9
aI47
aI-23
aI-40
aI-55
aI41
aI-34
aI-46
aI-35
aI-58
aI38
aI-46
aI0
aa(lp28
I-14
aI-55
aI-22
aI22
aI-32
aI53
aI-38
aI19
aI21
aI0
aI-55
aI0
aI17
aI-60
aI36
aI51
aI32
aI-41
aI34
aI5
aI5
aI50
aI-20
aI-37
aI-59
aI54
aI-31
aI-54
aI9
aI-24
aI39
aI-50
aI6
aI44
aI-57
aI43
aI-40
aI-34
aI-49
aI8
aI-4
aI28
aI-10
aI38
aI24
aI50
aI36
aI26
aI-6
aI-20
aI60
aI38
aI-47
aI-40
aI-43
aI31
aI30
aI14
aI-4
aI47
aa(lp29
I-49
aI22
aI21
aI-13
aI43
aI-31
aI-40
aI-28
aI18
aI16
aI-45
aI12
aI59
aI-15
aI-48
aI-30
aI-45
aI28
aI48
aI0
aI30
aI-53
aI44
aI-31
aI42
aI-2
aI-24
aI-19
aI-10
aI43
aI-34
aI-48
aI8
aI-25
aI6
aI26
aI-35
aI-60
aI14
aI34
aI-16
aI-4
aI-9
aI-8
aI46
aI-37
aI-13
aI10
aI-17
aI13
aI11
aI1
aI-49
aI15
aI-1
aI37
aI-55
aI45
aI34
aI36
aa(lp30
I-47
aI55
aI-21
aI35
aI14
aI56
aI1
aI4
aI48
aI55
aI-46
aI-59
aI38
aI45
aI-13
aI32
aI-30
aI-55
aI5
aI-20
aI-21
aI27
aI-59
aI2
aI60
aI-48
aI-21
aI38
aI-14
aI32
aI9
aI-48
aI-51
aI-24
aI51
aI7
aI-51
aI-23
aI-28
aI44
aI-50
aI50
aI-44
aI-13
aI31
aI7
aI-26
aI-45
aI42
aI20
aI35
aI-33
aI-2
aI-8
aI15
aI42
aI43
aI45
aI-7
aI-44
aa(lp31
I25
aI-30
aI52
aI35
aI50
aI-7
aI-14
aI-60
aI9
aI9
aI-26
aI29
aI-21
aI46
aI44
aI31
aI37
aI36
aI-60
aI21
aI47
aI-26
aI-28
aI6
aI55
aI50
aI-35
aI-54
aI7
aI-10
aI-36
aI-25
aI-47
aI16
aI21
aI17
aI17
aI46
aI11
aI-24
aI51
aI58
aI-6
aI-51
aI3
aI-40
aI-29
aI-45
aI-3
aI-28
aI-47
aI-60
aI57
aI46
aI-12
aI-59
aI-6
aI-26
aI-21
aI-22
aa(lp32
I16
aI-41
aI-23
aI-38
aI0
aI-27
aI30
aI43
aI48
aI-36
aI-41
aI-54
aI-54
aI-59
aI35
aI-30
aI3
aI25
aI-40
aI-13
aI44
aI-25
aI-35
aI26
aI22
aI-16
aI-35
aI25
aI44
aI60
aI32
aI-5
aI-56
aI49
aI47
aI-31
aI38
aI-55
aI13
aI22
aI-6
aI-20
aI-9
aI17
aI-59
aI-12
aI1
aI11
aI-56
aI-21
aI-25
aI-1
aI5
aI-24
aI24
aI9
aI-58
aI-11
aI-54
aI-45
aa(lp33
I19
aI-51
aI13
aI-46
aI51
aI1
aI-9
aI33
aI-16
aI-51
aI-6
aI21
aI38
aI32
aI-55
aI50
aI30
aI-46
aI19
aI-35
aI44
aI38
aI-40
aI-20
aI-57
aI-37
aI14
aI-16
aI-10
aI-42
aI-7
aI-59
aI31
aI36
aI-19
aI18
aI-15
aI-55
aI-34
aI45
aI-50
aI-14
aI-12
aI-14
aI-28
aI35
aI-42
aI43
aI10
aI-44
aI20
aI48
aI6
aI-57
aI-37
aI-22
aI54
aI35
aI37
aI57
aa(lp34
I-5
aI18
aI30
aI38
aI0
aI-14
aI18
aI-54
aI35
aI-33
aI21
aI-48
aI33
aI-4
aI35
aI-46
aI-17
aI-30
aI-11
aI-4
aI-11
aI-16
aI-20
aI59
aI51
aI-25
aI-7
aI-48
aI40
aI-38
aI-50
aI42
aI-31
aI7
aI15
aI-42
aI5
aI41
aI-16
aI-55
aI-59
aI-7
aI46
aI-30
aI-4
aI-8
aI35
aI-49
aI-8
aI-39
aI48
aI23
aI-59
aI-7
aI37
aI9
aI51
aI-18
aI-47
aI-42
aa(lp35
I17
aI-42
aI-14
aI-42
aI-26
aI-24
aI8
aI23
aI-41
aI-35
aI-58
aI-58
aI40
aI44
aI-55
aI25
aI60
aI22
aI9
aI-51
aI58
aI-4
aI-5
aI0
aI-55
aI-31
aI-55
aI-1
aI-54
aI38
aI-53
aI45
aI-55
aI35
aI-37
aI39
aI-44
aI5
aI-55
aI1
aI23
aI40
aI17
aI43
aI-55
aI39
aI28
aI20
aI15
aI22
aI-52
aI46
aI-18
aI3
aI-51
aI-58
aI-31
aI42
aI1
aI-58
aa(lp36
I-53
aI50
aI-16
aI11
aI39
aI-37
aI-10
aI18
aI-52
aI51
aI-25
aI-21
aI50
aI-20
aI53
aI-40
aI-54
aI-37
aI4
aI14
aI2
aI-46
aI44
aI48
aI-30
aI54
aI-55
aI56
aI-21
aI-1
aI-36
aI57
aI-24
aI-42
aI31
aI-51
aI-46
aI-54
aI-12
aI56
aI26
aI-59
aI44
aI57
aI47
aI59
aI26
aI41
aI56
aI-11
aI24
aI-45
aI32
aI-57
aI60
aI-1
aI-38
aI-12
aI59
aI16
aa(lp37
I42
aI21
aI-6
aI-33
aI-52
aI10
aI37
aI-47
aI-49
aI-15
aI41
aI-59
aI-17
aI-19
aI-32
aI-30
aI-51
aI37
aI-54
aI12
aI51
aI34
aI-30
aI28
aI-5
aI12
aI31
aI-20
aI37
aI-26
aI29
aI-48
aI-11
aI-52
aI-37
aI25
aI-39
aI60
aI12
aI0
aI-24
aI10
aI4
aI-12
aI-53
aI-15
aI-27
aI26
aI13
aI28
aI19
aI-33
aI48
aI-38
aI-19
aI-26
aI-12
aI-19
aI32
aI-41
aa(lp38
I41
aI-10
aI-29
aI23
aI34
aI45
aI54
aI15
aI30
aI47
aI51
aI34
aI-54
aI-16
aI47
aI41
aI-45
aI-13
aI-37
aI-29
aI-12
aI21
aI4
aI-16
aI37
aI-45
aI58
aI17
aI54
aI46
aI37
aI50
aI23
aI-4
aI-49
aI-29
aI60
aI15
aI29
aI5
aI-32
aI25
aI52
aI-2
aI-59
aI18
aI-44
aI-1
aI-47
aI-13
aI30
aI-57
aI42
aI56
aI56
aI25
aI-22
aI55
aI57
aI14
aa(lp39
I43
aI30
aI4
aI17
aI7
aI59
aI58
aI14
aI28
aI-9
aI21
aI-58
aI-42
aI42
aI-11
aI22
aI10
aI-60
aI-31
aI27
aI-59
aI39
aI-43
aI-14
aI55
aI-30
aI0
aI0
aI-22
aI46
aI4
aI-4
aI39
aI-15
aI44
aI-4
aI-60
aI-47
aI-44
aI-48
aI28
aI13
aI-29
aI55
aI-49
aI-46
aI46
aI50
aI-25
aI-15
aI-5
aI19
aI-52
aI0
aI10
aI37
aI-4
aI51
aI28
aI-43
aa(lp40
I-40
aI-55
aI3
aI-23
aI-13
aI6
aI-4
aI-44
aI27
aI-9
aI-34
aI-58
aI-25
aI15
aI59
aI-18
aI29
aI55
aI13
aI1
aI37
aI-15
aI-25
aI-24
aI6
aI-48
aI40
aI20
aI-20
aI55
aI31
aI-36
aI32
aI-46
aI37
aI-52
aI-42
aI48
aI36
aI-42
aI-24
aI47
aI39
aI-4
aI-32
aI-33
aI39
aI-23
aI-44
aI-4
aI-46
aI-19
aI29
aI44
aI-14
aI49
aI-49
aI-31
aI50
aI-37
aa(lp41
I36
aI-17
aI17
aI46
aI-3
aI37
aI9
aI-1
aI-52
aI14
aI13
aI-45
aI-20
aI-17
aI-53
aI39
aI-4
aI-29
aI-6
aI-54
aI-42
aI-52
aI51
aI57
aI-46
aI-39
aI28
aI53
aI6
aI-44
aI-23
aI45
aI4
aI-21
aI-49
aI-4
aI-47
aI-33
aI-42
aI56
aI-60
aI55
aI-30
aI-41
aI-34
aI-32
aI25
aI-25
aI55
aI-55
aI21
aI21
aI-56
aI23
aI31
aI24
aI55
aI23
aI-43
aI-21
aa(lp42
I-38
aI-57
aI24
aI-23
aI-46
aI7
aI26
aI-37
aI2
aI57
aI54
aI-27
aI-59
aI-15
aI-52
aI-45
aI24
aI43
aI5
aI4
aI60
aI-9
aI30
aI24
aI17
aI-47
aI-59
aI53
aI-14
aI-29
aI-24
aI54
aI-11
aI-16
aI13
aI-43
aI27
aI52
aI21
aI34
aI-26
aI-50
aI34
aI-12
aI-30
aI31
aI-15
aI-49
aI41
aI-53
aI53
aI18
aI-59
aI39
aI-18
aI-9
aI8
aI35
aI37
aI57
aa(lp43
I9
aI-6
aI-55
aI39
aI-34
aI33
aI-26
aI-52
aI57
aI35
aI-13
aI-3
aI48
aI-3
aI-29
aI-33
aI12
aI6
aI25
aI17
aI-25
aI34
aI-32
aI-51
aI-40
aI30
aI-38
aI-23
aI54
aI55
aI-55
aI-41
aI22
aI19
aI5
aI11
aI-7
aI41
aI37
aI56
aI-6
aI0
aI8
aI59
aI-41
aI-28
aI-28
aI43
aI37
aI49
aI18
aI54
aI-26
aI-15
aI15
aI20
aI23
aI51
aI51
aI41
aa(lp44
I-59
aI27
aI16
aI-53
aI6
aI-39
aI-52
aI-17
aI26
aI-30
aI14
aI-24
aI-12
aI20
aI-21
aI-22
aI10
aI34
aI32
aI37
aI1
aI-37
aI-46
aI33
aI24
aI7
aI-30
aI-26
aI29
aI-29
aI-13
aI-40
aI-40
aI19
aI-26
aI-36
aI-4
aI-17
aI-47
aI-53
aI11
aI-45
aI51
aI46
aI-49
aI-53
aI30
aI-19
aI36
aI-3
aI53
aI46
aI-5
aI-5
aI-8
aI-20
aI-5
aI50
aI2
aI-26
aa(lp45
I-42
aI51
aI32
aI1
aI-48
aI3
aI-16
aI-39
aI22
aI-47
aI-42
aI8
aI16
aI-23
aI25
aI49
aI35
aI16
aI50
aI17
aI0
aI-22
aI-1
aI-30
aI56
aI-43
aI9
aI-36
aI-10
aI39
aI-44
aI17
aI34
aI49
aI-28
aI-54
aI37
aI56
aI-39
aI15
aI-32
aI55
aI56
aI17
aI45
aI-56
aI36
aI12
aI-59
aI-22
aI33
aI-52
aI29
aI-57
aI-19
aI57
aI-47
aI26
aI58
aI-44
aa(lp46
I23
aI40
aI-35
aI-16
aI21
aI-56
aI27
aI-53
aI-29
aI38
aI41
aI-33
aI57
aI-21
aI9
aI-49
aI-20
aI14
aI25
aI18
aI-9
aI28
aI28
aI-9
aI-53
aI-3
aI7
aI4
aI-15
aI-19
aI33
aI-16
aI2
aI-32
aI-3
aI29
aI12
aI53
aI13
aI-3
aI46
aI49
aI38
aI-13
aI60
aI-41
aI-7
aI1
aI-37
aI-18
aI1
aI-26
aI-37
aI-12
aI9
aI36
aI1
aI-33
aI42
aI26
aa(lp47
I-15
aI-15
aI41
aI4
aI-10
aI-15
aI-55
aI-19
aI-49
aI-5
aI-48
aI-2
aI55
aI-13
aI-9
aI49
aI-45
aI57
aI54
aI19
aI58
aI-57
aI54
aI35
aI38
aI-44
aI-58
aI20
aI33
aI-10
aI-59
aI60
aI-29
aI-23
aI-26
aI-59
aI23
aI18
aI-10
aI56
aI-2
aI-11
aI-44
aI-48
aI-1
aI43
aI6
aI-4
aI-11
aI-24
aI6
aI47
aI-33
aI19
aI-29
aI50
aI4
aI3
aI-6
aI-3
aa(lp48
I-44
aI-35
aI-7
aI-1
aI30
aI-4
aI25
aI25
aI-54
aI-58
aI-9
aI31
aI-33
aI38
aI-6
aI-32
aI-42
aI21
aI55
aI-13
aI-47
aI19
aI-7
aI34
aI39
aI-29
aI20
aI-14
aI47
aI-32
aI7
aI6
aI44
aI-17
aI-24
aI-20
aI4
aI27
aI15
aI58
aI49
aI-46
aI-37
aI-1
aI14
aI-12
aI16
aI58
aI36
aI-1
aI-44
aI53
aI3
aI25
aI-9
aI-40
aI-42
aI-25
aI-60
aI-14
aa(lp49
I-16
aI-17
aI12
aI14
aI-15
aI32
aI27
aI-53
aI33
aI-19
aI30
aI12
aI7
aI47
aI29
aI-23
aI26
aI-8
aI27
aI-42
aI-41
aI-39
aI3
aI13
aI45
aI-7
aI23
aI-48
aI18
aI-13
aI57
aI-24
aI-38
aI44
aI39
aI21
aI-31
aI37
aI34
aI-32
aI-36
aI-37
aI-27
aI3
aI-11
aI-24
aI2
aI26
aI14
aI-4
aI2
aI55
aI-13
aI-9
aI46
aI-33
aI57
aI-18
aI-28
aI-56
aa(lp50
I-52
aI-12
aI-60
aI1
aI-26
aI0
aI-10
aI-46
aI-23
aI30
aI32
aI23
aI34
aI3
aI-4
aI32
aI38
aI44
aI-39
aI33
aI-60
aI-3
aI-20
aI-49
aI-21
aI29
aI-53
aI-25
aI32
aI-13
aI-39
aI32
aI42
aI16
aI-31
aI-25
aI27
aI-37
aI16
aI24
aI-23
aI-25
aI-36
aI-51
aI49
aI40
aI-47
aI53
aI37
aI-46
aI27
aI-24
aI18
aI-42
aI-6
aI9
aI32
aI15
aI6
aI42
aa(lp51
I44
aI-40
aI14
aI-44
aI57
aI17
aI-33
aI-19
aI42
aI45
aI35
aI18
aI-27
aI-22
aI46
aI46
aI-42
aI-30
aI0
aI-52
aI3
aI6
aI-24
aI-41
aI13
aI19
aI4
aI35
aI40
aI34
aI-53
aI-59
aI-28
aI-33
aI-50
aI42
aI44
aI26
aI-18
aI30
aI21
aI48
aI56
aI-43
aI10
aI39
aI-31
aI26
aI-57
aI25
aI-26
aI57
aI43
aI-19
aI-7
aI-3
aI-19
aI-29
aI-29
aI-10
aa(lp52
I44
aI-13
aI12
aI23
aI19
aI28
aI54
aI-44
aI-21
aI8
aI58
aI29
aI8
aI-60
aI-55
aI-55
aI48
aI50
aI-47
aI-40
aI7
aI9
aI-52
aI-32
aI52
aI38
aI-44
aI-4
aI-50
aI36
aI-15
aI-26
aI-25
aI20
aI-11
aI21
aI54
aI-35
aI49
aI-4
aI-53
aI-25
aI18
aI-40
aI-25
aI-8
aI-29
aI46
aI51
aI-29
aI5
aI38
aI-8
aI-25
aI-27
aI-53
aI-44
aI-14
aI27
aI-45
aa(lp53
I23
aI53
aI53
aI30
aI4
aI41
aI-6
aI36
aI33
aI-24
aI-55
aI34
aI-42
aI-16
aI40
aI58
aI-7
aI-11
aI-58
aI-9
aI60
aI-24
aI15
aI-49
aI9
aI-50
aI26
aI44
aI18
aI17
aI13
aI-9
aI28
aI31
aI48
aI5
aI32
aI27
aI57
aI-24
aI48
aI-21
aI30
aI24
aI-57
aI-34
aI-3
aI26
aI33
aI18
aI9
aI44
aI54
aI56
aI-58
aI49
aI13
aI-17
aI-11
aI-1
aa(lp54
I-18
aI-18
aI-35
aI-56
aI-27
aI-5
aI51
aI17
aI-60
aI-38
aI43
aI-41
aI-2
aI-2
aI-54
aI59
aI-59
aI35
aI0
aI-28
aI-3
aI19
aI7
aI45
aI49
aI-48
aI-34
aI-33
aI28
aI-18
aI20
aI31
aI-32
aI-54
aI-7
aI41
aI-26
aI-59
aI57
aI16
aI-44
aI-50
aI-33
aI44
aI-48
aI-13
aI-13
aI25
aI18
aI-18
aI10
aI6
aI22
aI43
aI-2
aI10
aI28
aI20
aI-38
aI30
aa(lp55
I-17
aI-34
aI-11
aI54
aI47
aI-11
aI49
aI-7
aI56
aI37
aI54
aI14
aI-4
aI13
aI35
aI-42
aI-38
aI4
aI59
aI47
aI29
aI42
aI-26
aI-58
aI14
aI-49
aI6
aI-38
aI46
aI23
aI44
aI-21
aI-47
aI-34
aI53
aI59
aI4
aI47
aI60
aI12
aI12
aI-41
aI40
aI41
aI33
aI55
aI4
aI55
aI16
aI51
aI-37
aI30
aI-50
aI33
aI-41
aI-17
aI-55
aI-51
aI-16
aI18
aa(lp56
I51
aI30
aI52
aI-35
aI40
aI-55
aI30
aI21
aI-59
aI-57
aI56
aI-52
aI51
aI-18
aI-59
aI-6
aI-5
aI19
aI59
aI-55
aI-23
aI-36
aI43
aI56
aI24
aI-40
aI-33
aI59
aI-30
aI9
aI-11
aI-15
aI38
aI-13
aI-47
aI-31
aI-58
aI33
aI55
aI15
aI28
aI26
aI-5
aI49
aI9
aI42
aI52
aI-57
aI1
aI5
aI35
aI10
aI4
aI50
aI-36
aI52
aI35
aI-53
aI31
aI-60
aa(lp57
I-26
aI3
aI59
aI35
aI-27
aI34
aI31
aI16
aI34
aI-40
aI40
aI43
aI45
aI33
aI55
aI-55
aI-7
aI-3
aI-32
aI-18
aI33
aI52
aI12
aI-22
aI-24
aI-46
aI-10
aI-33
aI48
aI3
aI-37
aI-10
aI17
aI22
aI-23
aI-27
aI14
aI10
aI-59
aI11
aI11
aI59
aI32
aI-23
aI28
aI-20
aI-30
aI-14
aI-29
aI-4
aI-57
aI-15
aI-57
aI33
aI-4
aI-7
aI13
aI-3
aI16
aI49
aa(lp58
I-26
aI7
aI-60
aI-19
aI-42
aI58
aI-42
aI-32
aI-29
aI-50
aI-46
aI-59
aI17
aI-2
aI49
aI35
aI-24
aI31
aI45
aI-14
aI-34
aI10
aI-22
aI-56
aI-56
aI-42
aI28
aI-54
aI41
aI-48
aI-41
aI26
aI16
aI5
aI36
aI-51
aI-47
aI-17
aI57
aI39
aI-43
aI56
aI4
aI54
aI13
aI-27
aI-34
aI55
aI1
aI54
aI-54
aI52
aI-29
aI-15
aI-32
aI-10
aI-45
aI9
aI53
aI-18
aa(lp59
I-7
aI-5
aI-16
aI-48
aI-40
aI26
aI53
aI60
aI-8
aI14
aI-34
aI47
aI5
aI28
aI-53
aI31
aI37
aI29
aI47
aI57
aI-43
aI-26
aI9
aI57
aI10
aI17
aI20
aI-28
aI-52
aI-36
aI20
aI-34
aI-22
aI-41
aI-27
aI-1
aI-37
aI-44
aI17
aI36
aI-22
aI24
aI46
aI43
aI57
aI-42
aI-46
aI24
aI-60
aI-23
aI-8
aI-11
aI-21
aI6
aI-20
aI36
aI-29
aI44
aI25
aI54
aa(lp60
I-27
aI28
aI-30
aI17
aI-4
aI39
aI48
aI49
aI19
aI-45
aI-23
aI55
aI-58
aI34
aI20
aI13
aI50
aI24
aI-30
aI3
aI37
aI2
aI-8
aI30
aI45
aI31
aI42
aI-60
aI18
aI-55
aI42
aI12
aI-7
aI20
aI-20
aI-56
aI29
aI46
aI-59
aI-31
aI-23
aI40
aI-32
aI-47
aI-7
aI24
aI58
aI-44
aI22
aI-14
aI21
aI-21
aI0
aI-58
aI-1
aI-28
aI40
aI46
aI45
aI-55
aa(lp61
I6
aI54
aI-58
aI-23
aI21
aI33
aI5
aI-2
aI27
aI44
aI-25
aI50
aI53
aI55
aI26
aI52
aI25
aI46
aI-6
aI-1
aI-23
aI-39
aI50
aI8
aI54
aI2
aI55
aI24
aI21
aI-24
aI-43
aI-29
aI32
aI45
aI-5
aI15
aI60
aI30
aI-14
aI-54
aI-53
aI-55
aI-36
aI42
aI36
aI4
aI48
aI-27
aI22
aI54
aI48
aI-36
aI7
aI4
aI29
aI21
aI-55
aI47
aI-52
aI32
aa(lp62
I-51
aI23
aI-3
aI-1
aI-43
aI13
aI43
aI32
aI-20
aI-25
aI-22
aI41
aI41
aI28
aI23
aI5
aI58
aI28
aI-44
aI-8
aI-44
aI31
aI-31
aI56
aI-31
aI60
aI-46
aI-58
aI41
aI-2
aI24
aI33
aI-19
aI51
aI-49
aI-11
aI-1
aI2
aI57
aI-24
aI22
aI-43
aI-53
aI-3
aI5
aI-45
aI13
aI17
aI-37
aI36
aI-42
aI24
aI-7
aI35
aI15
aI3
aI5
aI-54
aI18
aI53
aa(lp63
I49
aI12
aI55
aI-31
aI41
aI35
aI-1
aI45
aI51
aI56
aI9
aI-47
aI-21
aI-2
aI11
aI-48
aI-55
aI18
aI3
aI50
aI43
aI-29
aI32
aI-39
aI-31
aI-19
aI-22
aI3
aI-31
aI-59
aI40
aI31
aI-22
aI-8
aI16
aI33
aI-58
aI56
aI-54
aI25
aI-54
aI38
aI-6
aI19
aI-21
aI15
aI-1
aI11
aI-49
aI40
aI-55
aI25
aI17
aI-8
aI-18
aI5
aI17
aI51
aI54
aI-5
aa(lp64
I38
aI51
aI-6
aI50
aI35
aI-37
aI-31
aI28
aI-59
aI49
aI-53
aI3
aI-44
aI51
aI-27
aI-10
aI32
aI-1
aI-28
aI33
aI-14
aI-30
aI-45
aI23
aI-46
aI42
aI1
aI37
aI34
aI-18
aI42
aI-42
aI47
aI55
aI-42
aI-27
aI16
aI30
aI-8
aI50
aI57
aI13
aI40
aI-40
aI22
aI49
aI9
aI32
aI45
aI42
aI-32
aI-13
aI-40
aI36
aI-52
aI-30
aI-10
aI27
aI-46
aI-56
aa(lp65
I32
aI49
aI26
aI54
aI13
aI56
aI-12
aI34
aI-30
aI33
aI-2
aI3
aI-2
aI-43
aI-18
aI-51
aI1
aI-23
aI24
aI-55
aI13
aI26
aI41
aI11
aI3
aI24
aI4
aI33
aI21
aI-8
aI27
aI11
aI-15
aI-18
aI3
aI37
aI-59
aI-17
aI-30
aI40
aI-4
aI-41
aI24
aI0
aI31
aI-8
aI19
aI-57
aI49
aI45
aI-21
aI54
aI39
aI-6
aI56
aI-43
aI-32
aI-39
aI47
aI-4
aa(lp66
I48
aI32
aI-58
aI12
aI-19
aI45
aI-35
aI23
aI29
aI-54
aI-28
aI-54
aI-19
aI-48
aI26
aI-57
aI16
aI-34
aI24
aI50
aI-51
aI48
aI-39
aI-25
aI60
aI31
aI35
aI-43
aI-9
aI-15
aI-21
aI54
aI-14
aI57
aI-8
aI-56
aI3
aI0
aI51
aI21
aI47
aI26
aI41
aI19
aI56
aI5
aI22
aI-55
aI57
aI17
aI-7
aI36
aI54
aI-20
aI-10
aI-11
aI-46
aI-50
aI-37
aI47
aa(lp67
I-37
aI-9
aI-47
aI16
aI39
aI34
aI57
aI24
aI1
aI18
aI-57
aI41
aI-28
aI-48
aI-12
aI45
aI-22
aI-25
aI-51
aI-11
aI-18
aI15
aI-37
aI-39
aI42
aI-56
aI5
aI-59
aI11
aI4
aI0
aI21
aI21
aI-60
aI-47
aI42
aI-20
aI-31
aI-38
aI20
aI-8
aI31
aI-13
aI3
aI-50
aI42
aI6
aI-31
aI-5
aI-30
aI-38
aI-49
aI9
aI-55
aI-47
aI9
aI30
aI8
aI-47
aI-13
aa(lp68
I-55
aI-6
aI-14
aI-32
aI17
aI-44
aI-20
aI-37
aI34
aI6
aI-30
aI-40
aI-55
aI-3
aI37
aI-15
aI49
aI-11
aI25
aI-25
aI53
aI-32
aI-34
aI57
aI49
aI18
aI-57
aI31
aI3
aI-35
aI-12
aI-33
aI-46
aI59
aI-44
aI-46
aI-20
aI-15
aI-60
aI-38
aI55
aI-39
aI-28
aI-3
aI-22
aI4
aI53
aI-21
aI-35
aI20
aI52
aI-33
aI-29
aI45
aI-39
aI-40
aI-20
aI22
aI30
aI-11
aa(lp69
I20
aI49
aI27
aI4
aI17
aI-40
aI25
aI-31
aI13
aI53
aI-8
aI24
aI41
aI10
aI47
aI28
aI44
aI30
aI-14
aI-34
aI58
aI-35
aI0
aI-8
aI-42
aI-38
aI-54
aI51
aI4
aI17
aI-55
aI38
aI10
aI40
aI24
aI-3
aI13
aI46
aI-26
aI-4
aI47
aI20
aI58
aI-13
aI-33
aI-33
aI47
aI2
aI-54
aI26
aI2
aI-33
aI-21
aI-52
aI-8
aI10
aI-41
aI6
aI-9
aI-54
aa(lp70
I-59
aI-31
aI-9
aI-48
aI3
aI-26
aI-15
aI4
aI-25
aI-46
aI-33
aI4
aI-53
aI16
aI-49
aI-7
aI-55
aI23
aI-28
aI35
aI40
aI14
aI-16
aI-17
aI-4
aI-11
aI-28
aI-41
aI8
aI3
aI-47
aI18
aI-22
aI-58
aI17
aI11
aI-6
aI-35
aI-26
aI-53
aI11
aI26
aI43
aI-39
aI-1
aI-45
aI-4
aI17
aI16
aI-29
aI-8
aI-9
aI-12
aI27
aI53
aI55
aI22
aI-12
aI46
aI-22
aa(lp71
I-35
aI-39
aI-3
aI-59
aI47
aI-24
aI50
aI-58
aI-33
aI-3
aI-56
aI-36
aI3
aI-32
aI-55
aI14
aI-14
aI-12
aI-2
aI-18
aI-58
aI22
aI-25
aI3
aI-1
aI20
aI-17
aI-27
aI-1
aI26
aI33
aI51
aI25
aI44
aI46
aI-32
aI-48
aI53
aI-8
aI21
aI-19
aI21
aI54
aI-30
aI3
aI54
aI-36
aI-48
aI-19
aI33
aI-1
aI-39
aI-6
aI25
aI-5
aI39
aI29
aI-47
aI51
aI-47
aa(lp72
I21
aI-48
aI-7
aI13
aI50
aI-15
aI37
aI35
aI-36
aI42
aI-50
aI30
aI-36
aI50
aI44
aI-2
aI31
aI38
aI16
aI38
aI17
aI0
aI-12
aI58
aI26
aI-18
aI-45
aI-7
aI-17
aI-4
aI-2
aI35
aI43
aI48
aI50
aI-11
aI-45
aI20
aI51
aI1
aI17
aI17
aI51
aI3
aI-8
aI49
aI-43
aI-2
aI52
aI-8
aI-43
aI-55
aI51
aI33
aI-27
aI-16
aI-44
aI-16
aI-58
aI35
aa(lp73
I-40
aI52
aI13
aI-36
aI31
aI18
aI10
aI-13
aI-60
aI10
aI5
aI59
aI33
aI-3
aI50
aI60
aI49
aI-46
aI-11
aI-53
aI-31
aI52
aI17
aI3
aI16
aI-40
aI10
aI-4
aI-42
aI-47
aI-1
aI-14
aI35
aI7
aI22
aI-7
aI-10
aI16
aI8
aI-48
aI23
aI-51
aI-55
aI16
aI-51
aI-33
aI25
aI-15
aI-7
aI-48
aI-59
aI-40
aI21
aI25
aI-11
aI-44
aI-1
aI-41
aI-30
aI-26
aa(lp74
I48
aI-37
aI38
aI-12
aI20
aI13
aI-55
aI12
aI-48
aI-9
aI37
aI35
aI45
aI40
aI-51
aI-55
aI-48
aI4
aI57
aI-44
aI-60
aI52
aI1
aI-4
aI-23
aI-60
aI20
aI-30
aI23
aI-45
aI43
aI24
aI-56
aI43
aI-23
aI-13
aI-55
aI-15
aI-50
aI-40
aI-12
aI43
aI10
aI-22
aI-29
aI-11
aI-57
aI-17
aI37
aI-21
aI32
aI-43
aI18
aI-23
aI37
aI-4
aI-34
aI1
aI-32
aI-17
aa(lp75
I42
aI8
aI43
aI35
aI60
aI-43
aI14
aI2
aI-13
aI-28
aI27
aI-23
aI-21
aI-14
aI-25
aI-24
aI-38
aI-48
aI22
aI-47
aI49
aI27
aI-23
aI-43
aI-40
aI-9
aI-52
aI1
aI-55
aI18
aI-55
aI-50
aI30
aI11
aI16
aI35
aI-39
aI-57
aI13
aI28
aI-41
aI40
aI-11
aI-36
aI-16
aI-39
aI-28
aI9
aI26
aI-44
aI-51
aI3
aI48
aI21
aI-21
aI44
aI18
aI53
aI-17
aI39
aa(lp76
I37
aI-59
aI-28
aI-33
aI-11
aI33
aI-59
aI-46
aI44
aI41
aI58
aI-36
aI23
aI-21
aI-20
aI33
aI45
aI-57
aI-36
aI25
aI50
aI-59
aI-49
aI28
aI-46
aI47
aI33
aI14
aI19
aI14
aI13
aI-14
aI-33
aI33
aI-18
aI-41
aI0
aI3
aI18
aI28
aI-54
aI28
aI-48
aI-23
aI-23
aI59
aI11
aI-27
aI44
aI3
aI-5
aI49
aI-11
aI-39
aI-43
aI-25
aI-18
aI45
aI-35
aI38
aa(lp77
I-20
aI13
aI-24
aI35
aI-38
aI48
aI-54
aI24
aI-15
aI32
aI-42
aI26
aI-19
aI-36
aI0
aI-55
aI18
aI16
aI-27
aI13
aI-37
aI-17
aI-9
aI-8
aI-41
aI-34
aI40
aI23
aI24
aI-58
aI-1
aI-31
aI14
aI-4
aI-15
aI2
aI21
aI42
aI-3
aI-45
aI22
aI38
aI40
aI-32
aI-22
aI-23
aI-59
aI41
aI28
aI60
aI25
aI58
aI41
aI-54
aI-27
aI-29
aI51
aI27
aI0
aI-53
aa(lp78
I-23
aI-3
aI17
aI-11
aI5
aI41
aI59
aI-40
aI5
aI-41
aI9
aI49
aI-58
aI60
aI6
aI-36
aI19
aI-44
aI-23
aI-30
aI59
aI-40
aI-5
aI11
aI-58
aI19
aI-8
aI-35
aI-29
aI32
aI41
aI-30
aI-58
aI5
aI-23
aI30
aI9
aI-21
aI42
aI41
aI-9
aI-5
aI-50
aI-35
aI-41
aI-29
aI-49
aI-46
aI31
aI32
aI8
aI-51
aI-28
aI58
aI-59
aI52
aI-27
aI16
aI-22
aI-19
aa(lp79
I-12
aI-53
aI-22
aI-1
aI-24
aI-2
aI24
aI-12
aI26
aI-16
aI57
aI14
aI-15
aI46
aI0
aI-55
aI43
aI-28
aI-17
aI-22
aI-56
aI39
aI54
aI54
aI31
aI-40
aI56
aI-58
aI24
aI7
aI-53
aI9
aI59
aI23
aI18
aI-7
aI44
aI7
aI45
aI-19
aI28
aI58
aI44
aI22
aI-50
aI-13
aI39
aI-57
aI7
aI-5
aI42
aI-34
aI36
aI-34
aI1
aI58
aI-30
aI-54
aI-39
aI46
aa(lp80
I-42
aI-12
aI23
aI-12
aI-44
aI-38
aI-60
aI59
aI49
aI21
aI42
aI-27
aI-24
aI21
aI37
aI15
aI56
aI54
aI38
aI-3
aI51
aI-4
aI4
aI25
aI52
aI9
aI7
aI-12
aI-21
aI-43
aI-16
aI42
aI14
aI25
aI30
aI37
aI51
aI44
aI1
aI-46
aI-30
aI-38
aI13
aI-14
aI11
aI-1
aI-27
aI-14
aI-55
aI19
aI-57
aI-39
aI29
aI33
aI-8
aI-48
aI25
aI40
aI-55
aI-44
aa(lp81
I18
aI34
aI47
aI36
aI34
aI44
aI-19
aI57
aI41
aI-2
aI-45
aI-34
aI-56
aI-13
aI-50
aI58
aI60
aI24
aI4
aI-8
aI-32
aI29
aI42
aI10
aI6
aI-17
aI9
aI60
aI14
aI-50
aI-14
aI51
aI45
aI42
aI0
aI17
aI12
aI-52
aI0
aI-18
aI-1
aI-42
aI40
aI36
aI-23
aI-7
aI34
aI21
aI-18
aI21
aI-3
aI-40
aI12
aI-17
aI7
aI-43
aI-2
aI-1
aI38
aI-25
aa(lp82
I-12
aI43
aI21
aI-1
aI-15
aI-45
aI-17
aI-56
aI52
aI-42
aI-13
aI-18
aI-25
aI-55
aI-54
aI19
aI-43
aI49
aI27
aI53
aI52
aI23
aI50
aI-36
aI9
aI-31
aI59
aI-5
aI-11
aI34
aI39
aI37
aI-17
aI-17
aI54
aI-39
aI-23
aI-33
aI-48
aI-46
aI22
aI-21
aI52
aI-46
aI-4
aI20
aI-11
aI-39
aI2
aI25
aI-8
aI11
aI-58
aI-20
aI-11
aI-57
aI-31
aI-7
aI28
aI36
aa(lp83
I-18
aI1
aI46
aI46
aI-33
aI-1
aI42
aI9
aI-52
aI55
aI-29
aI-36
aI-21
aI-34
aI-14
aI23
aI41
aI44
aI54
aI3
aI37
aI41
aI40
aI46
aI-27
aI-1
aI48
aI4
aI-28
aI21
aI51
aI0
aI-2
aI46
aI-36
aI-58
aI15
aI-60
aI-35
aI44
aI57
aI-53
aI-54
aI9
aI-38
aI-60
aI29
aI10
aI48
aI50
aI-10
aI1
aI-33
aI-6
aI-50
aI23
aI15
aI15
aI-39
aI-57
aa(lp84
I4
aI23
aI-48
aI34
aI38
aI2
aI8
aI-15
aI-52
aI18
aI-40
aI18
aI-50
aI-56
aI-2
aI25
aI-39
aI30
aI-46
aI-42
aI29
aI-38
aI41
aI-7
aI14
aI-13
aI-7
aI42
aI53
aI38
aI-53
aI43
aI39
aI18
aI-23
aI-34
aI35
aI16
aI53
aI-55
aI53
aI-5
aI-33
aI30
aI4
aI31
aI15
aI-22
aI43
aI31
aI-50
aI54
aI35
aI58
aI-33
aI-39
aI-23
aI29
aI27
aI-13
aa(lp85
I-27
aI-15
aI17
aI10
aI-35
aI-49
aI-7
aI-17
aI19
aI-27
aI9
aI-23
aI53
aI10
aI-42
aI-49
aI19
aI-36
aI-24
aI25
aI-37
aI12
aI-30
aI-50
aI45
aI18
aI47
aI-39
aI-35
aI-15
aI37
aI-58
aI-3
aI-33
aI31
aI-27
aI-44
aI48
aI-35
aI10
aI-24
aI-2
aI-24
aI-27
aI-37
aI-10
aI-19
aI37
aI-6
aI-36
aI-11
aI44
aI8
aI4
aI-37
aI-23
aI37
aI-15
aI-1
aI-4
aa(lp86
I-40
aI-54
aI-46
aI8
aI52
aI42
aI51
aI-29
aI45
aI46
aI-49
aI47
aI-1
aI-28
aI-49
aI23
aI16
aI-4
aI19
aI16
aI-46
aI51
aI-24
aI-38
aI3
aI-18
aI-17
aI54
aI46
aI33
aI-44
aI-44
aI2
aI45
aI6
aI-41
aI-27
aI-15
aI-60
aI30
aI54
aI43
aI46
aI6
aI32
aI7
aI-57
aI-44
aI2
aI60
aI32
aI48
aI-3
aI47
aI25
aI-21
aI15
aI-22
aI7
aI44
aa(lp87
I-51
aI-51
aI52
aI31
aI45
aI31
aI32
aI9
aI-1
aI40
aI-11
aI-37
aI-59
aI-18
aI-49
aI-47
aI59
aI-46
aI52
aI-36
aI-54
aI-11
aI8
aI44
aI54
aI-36
aI18
aI-15
aI7
aI18
aI-56
aI27
aI-16
aI20
aI12
aI-26
aI-56
aI-15
aI5
aI9
aI-59
aI20
aI19
aI-2
aI49
aI-31
aI4
aI59
aI-40
aI-34
aI6
aI46
aI-51
aI-9
aI-59
aI3
aI-28
aI47
aI35
aI46
aa(lp88
I-17
aI2
aI-9
aI56
aI57
aI-46
aI-57
aI32
aI-36
aI-12
aI36
aI-14
aI-15
aI-21
aI-54
aI-34
aI-52
aI53
aI-49
aI-16
aI52
aI34
aI-52
aI17
aI46
aI47
aI-15
aI-30
aI3
aI25
aI11
aI-48
aI53
aI-47
aI-16
aI19
aI-1
aI-21
aI11
aI42
aI26
aI58
aI-21
aI-43
aI26
aI36
aI24
aI15
aI-22
aI13
aI51
aI22
aI4
aI-12
aI28
aI22
aI47
aI-12
aI53
aI0
aa(lp89
I33
aI-36
aI28
aI23
aI16
aI45
aI59
aI54
aI-31
aI48
aI-55
aI-32
aI30
aI-17
aI6
aI40
aI41
aI47
aI-30
aI25
aI32
aI-11
aI26
aI59
aI-29
aI-48
aI33
aI-59
aI45
aI-10
aI32
aI-9
aI3
aI33
aI4
aI0
aI-48
aI24
aI43
aI-26
aI52
aI27
aI-26
aI-4
aI35
aI-56
aI-42
aI13
aI-45
aI0
aI8
aI44
aI-22
aI9
aI-16
aI29
aI-53
aI23
aI13
aI-31
aa(lp90
I45
aI20
aI10
aI-36
aI18
aI1
aI-2
aI8
aI55
aI6
aI-10
aI-29
aI1
aI-11
aI-37
aI-2
aI51
aI-39
aI-22
aI35
aI-2
aI-47
aI7
aI-23
aI39
aI19
aI33
aI-18
aI-39
aI27
aI-2
aI-11
aI54
aI-15
aI5
aI44
aI-56
aI14
aI16
aI5
aI-53
aI12
aI12
aI-51
aI1
aI-56
aI0
aI-22
aI-51
aI2
aI-2
aI22
aI57
aI32
aI39
aI-31
aI-58
aI-42
aI7
aI57
aa(lp91
I-11
aI-45
aI28
aI-46
aI7
aI8
aI-46
aI-34
aI22
aI-58
aI-5
aI6
aI-32
aI-57
aI-32
aI52
aI31
aI23
aI41
aI-60
aI23
aI-3
aI12
aI34
aI41
aI-39
aI35
aI4
aI51
aI2
aI-56
aI-29
aI8
aI-51
aI29
aI56
aI35
aI-50
aI54
aI39
aI-48
aI48
aI2
aI-53
aI-57
aI14
aI28
aI12
aI30
aI27
aI-51
aI-11
aI-19
aI27
aI3
aI52
aI31
aI-53
aI-43
aI-53
aa(lp92
I-36
aI-57
aI13
aI-1
aI25
aI52
aI-56
aI-43
aI57
aI-38
aI10
aI-7
aI16
aI-7
aI16
aI24
aI-57
aI42
aI10
aI-13
aI57
aI6
aI-32
aI-59
aI12
aI16
aI58
aI-3
aI-52
aI-25
aI-6
aI1
aI-60
aI49
aI29
aI39
aI-18
aI-28
aI-44
aI30
aI43
aI-38
aI16
aI-48
aI-59
aI11
aI-6
aI4
aI34
aI-42
aI37
aI18
aI-25
aI55
aI46
aI-55
aI-8
aI-57
aI-60
aI11
aa(lp93
I-49
aI49
aI47
aI-5
aI37
aI15
aI-24
aI22
aI-46
aI45
aI-39
aI-14
aI-37
aI-56
aI32
aI-21
aI-12
aI-39
aI-42
aI-51
aI58
aI47
aI-24
aI32
aI-14
aI-29
aI-59
aI35
aI-1
aI18
aI-49
aI60
aI54
aI-32
aI-41
aI14
aI-13
aI24
aI-36
aI33
aI8
aI32
aI-23
aI7
aI-14
aI44
aI-1
aI31
aI-37
aI-39
aI-23
aI-14
aI21
aI-43
aI38
aI32
aI34
aI-28
aI0
aI33
aa(lp94
I19
aI18
aI-38
aI12
aI-31
aI10
aI8
aI60
aI21
aI-7
aI41
aI50
aI-52
aI-23
aI-13
aI-24
aI-56
aI22
aI-43
aI-33
aI-6
aI-41
aI49
aI-22
aI-17
aI9
aI53
aI35
aI-21
aI-27
aI2
aI-1
aI46
aI39
aI4
aI0
aI-33
aI3
aI54
aI33
aI-23
aI-16
aI-13
aI26
aI21
aI42
aI-5
aI-53
aI39
aI13
aI-23
aI39
aI-57
aI-47
aI30
aI-15
aI-40
aI22
aI17
aI-7
aa(lp95
I-11
aI-41
aI22
aI-54
aI-50
aI15
aI-49
aI26
aI23
aI17
aI-54
aI-17
aI27
aI-17
aI35
aI30
aI33
aI26
aI59
aI-56
aI-6
aI-27
aI-2
aI52
aI-50
aI53
aI-17
aI24
aI-23
aI19
aI33
aI-25
aI52
aI8
aI-50
aI-14
aI49
aI35
aI-2
aI-48
aI60
aI-20
aI32
aI35
aI0
aI-49
aI18
aI41
aI-50
aI33
aI-34
aI36
aI53
aI-35
aI-48
aI-57
aI1
aI34
aI-56
aI-12
aa(lp96
I-60
aI28
aI9
aI23
aI1
aI48
aI43
aI34
aI8
aI-47
aI51
aI-32
aI22
aI-28
aI16
aI44
aI-7
aI22
aI-9
aI53
aI-21
aI44
aI50
aI-38
aI28
aI45
aI-3
aI-33
aI-22
aI4
aI-57
aI-31
aI-54
aI47
aI-43
aI-5
aI-33
aI-26
aI46
aI-56
aI-22
aI4
aI-21
aI3
aI-10
aI44
aI35
aI-1
aI57
aI52
aI-38
aI-57
aI-20
aI-5
aI50
aI-35
aI25
aI4
aI31
aI-40
aa(lp97
I-49
aI34
aI44
aI57
aI-8
aI28
aI-37
aI51
aI7
aI-16
aI39
aI31
aI-53
aI31
aI56
aI12
aI36
aI-28
aI60
aI13
aI10
aI60
aI48
aI-31
aI-49
aI-3
aI-41
aI-46
aI3
aI-30
aI-38
aI-55
aI-8
aI46
aI18
aI-49
aI44
aI33
aI-35
aI3
aI10
aI3
aI-14
aI-20
aI4
aI50
aI2
aI24
aI-15
aI9
aI-28
aI-60
aI-5
aI29
aI32
aI9
aI-44
aI6
aI14
aI54
aa(lp98
I14
aI-29
aI-50
aI-30
aI60
aI33
aI18
aI55
aI8
aI44
aI33
aI40
aI45
aI-55
aI-20
aI-59
aI-11
aI-52
aI-37
aI53
aI32
aI-23
aI-45
aI-45
aI-31
aI28
aI-24
aI-44
aI35
aI8
aI4
aI-43
aI-2
aI-4
aI20
aI50
aI-47
aI-25
aI-27
aI-15
aI56
aI54
aI-1
aI56
aI21
aI-57
aI-44
aI-23
aI-13
aI50
aI-33
aI1
aI24
aI-34
aI-50
aI18
aI-29
aI54
aI-9
aI58
aa(lp99
I14
aI16
aI52
aI27
aI-4
aI17
aI24
aI-53
aI10
aI26
aI-14
aI-42
aI-1
aI-39
aI60
aI-10
aI58
aI-37
aI35
aI-2
aI-36
aI-52
aI13
aI-26
aI12
aI25
aI-49
aI-1
aI38
aI-39
aI-51
aI-47
aI60
aI-12
aI25
aI-58
aI1
aI-29
aI-52
aI47
aI-57
aI-43
aI53
aI23
aI-20
aI49
aI-19
aI-30
aI45
aI27
aI-27
aI34
aI21
aI-54
aI41
aI34
aI11
aI-55
aI-34
aI33
aa(lp100
I-43
aI5
aI40
aI52
aI-9
aI12
aI1
aI12
aI16
aI55
aI-28
aI-30
aI0
aI-27
aI-33
aI58
aI-20
aI33
aI-17
aI56
aI-15
aI-46
aI31
aI1
aI42
aI-56
aI33
aI-45
aI47
aI3
aI-26
aI-5
aI6
aI-54
aI-3
aI53
aI-6
aI-58
aI-42
aI16
aI48
aI-59
aI26
aI-31
aI-26
aI-50
aI30
aI47
aI-46
aI50
aI50
aI51
aI20
aI-9
aI-34
aI-39
aI-15
aI18
aI-46
aI0
aa.