(lp0
(lp1
I-45
aI15
aI67
aI-29
aI31
aI36
aI37
aI-30
aI-7
aI2
aI-10
aI69
aI32
aI58
aI-33
aI-64
aI-70
aI11
aI-61
aI12
aI69
aI66
aI13
aI-24
aI-19
aI-46
aI21
aI1
aI-17
aI-70
aI-69
aI-45
aI62
aI-1
aI-18
aI-26
aI-50
aI-48
aI25
aI46
aI-35
aI52
aI-47
aI48
aI19
aI15
aI-15
aI-6
aI51
aI22
aI-4
aI40
aI21
aI-28
aI-56
aI38
aI-62
aI-7
aI-48
aI56
aI9
aI-18
aI37
aI-13
aI43
aI-56
aI-3
aI-13
aI-43
aI1
aa(lp2
I-20
aI14
aI-21
aI-60
aI-4
aI7
aI-10
aI59
aI-13
aI-55
aI41
aI65
aI-36
aI10
aI16
aI-29
aI65
aI34
aI-23
aI-21
aI-16
aI-8
aI8
aI45
aI-44
aI30
aI-70
aI47
aI-66
aI62
aI-55
aI-43
aI-24
aI7
aI-40
aI68
aI-45
aI-24
aI-52
aI-24
aI-19
aI2
aI-16
aI27
aI-48
aI8
aI-34
aI-50
aI38
aI-13
aI-1
aI-50
aI-30
aI11
aI45
aI9
aI47
aI-7
aI-26
aI-52
aI-43
aI35
aI-66
aI-19
aI-2
aI-56
aI3
aI-25
aI50
aI-10
aa(lp3
I-38
aI32
aI-5
aI-9
aI-37
aI-61
aI-20
aI-61
aI11
aI-51
aI-4
aI-50
aI50
aI-35
aI25
aI-9
aI-59
aI51
aI-53
aI-21
aI61
aI36
aI-27
aI-18
aI39
aI52
aI-41
aI48
aI19
aI4
aI-40
aI-65
aI2
aI44
aI41
aI61
aI6
aI22
aI27
aI-46
aI-68
aI28
aI-15
aI-32
aI22
aI32
aI43
aI54
aI-37
aI-37
aI-21
aI-40
aI59
aI-60
aI25
aI-51
aI70
aI14
aI70
aI9
aI-34
aI28
aI40
aI6
aI-19
aI8
aI0
aI24
aI-52
aI-16
aa(lp4
I12
aI25
aI9
aI16
aI65
aI-42
aI11
aI10
aI-68
aI-40
aI-59
aI-17
aI-8
aI-24
aI-29
aI-9
aI-48
aI-5
aI9
aI4
aI63
aI-22
aI26
aI-54
aI50
aI-49
aI-29
aI20
aI-63
aI-66
aI28
aI-54
aI48
aI23
aI-23
aI62
aI37
aI-64
aI-19
aI63
aI-61
aI-57
aI-41
aI41
aI61
aI10
aI-38
aI-59
aI-12
aI-61
aI-58
aI22
aI-47
aI-21
aI46
aI17
aI2
aI-17
aI-70
aI-70
aI-41
aI-16
aI10
aI50
aI-33
aI-29
aI23
aI37
aI26
aI-40
aa(lp5
I51
aI5
aI13
aI-39
aI57
aI25
aI-34
aI52
aI5
aI-39
aI-54
aI45
aI59
aI59
aI-18
aI-15
aI-61
aI21
aI-42
aI-22
aI-19
aI-12
aI-24
aI-41
aI-50
aI9
aI-6
aI34
aI-36
aI-13
aI58
aI-14
aI58
aI17
aI-11
aI22
aI-42
aI43
aI-36
aI-48
aI-15
aI7
aI10
aI5
aI-44
aI-56
aI4
aI37
aI41
aI-27
aI-51
aI10
aI5
aI6
aI-36
aI11
aI8
aI48
aI-45
aI25
aI-48
aI32
aI-30
aI-23
aI-7
aI21
aI40
aI10
aI-12
aI24
aa(lp6
I33
aI-26
aI-38
aI29
aI-6
aI46
aI-57
aI30
aI-21
aI-41
aI37
aI17
aI-56
aI-44
aI4
aI-33
aI-70
aI-1
aI31
aI56
aI-41
aI-6
aI46
aI7
aI-11
aI49
aI57
aI-16
aI9
aI-47
aI-49
aI14
aI28
aI-68
aI11
aI5
aI47
aI-26
aI58
aI35
aI17
aI30
aI5
aI-6
aI36
aI-14
aI-16
aI-35
aI5
aI58
aI-41
aI-5
aI-68
aI-11
aI-53
aI-2
aI42
aI0
aI45
aI17
aI-16
aI-41
aI-57
aI-16
aI35
aI-42
aI31
aI-67
aI-40
aI6
aa(lp7
I65
aI-43
aI-60
aI30
aI54
aI12
aI-55
aI-63
aI57
aI-35
aI-54
aI-9
aI-61
aI-53
aI17
aI-62
aI-47
aI13
aI49
aI27
aI-6
aI-43
aI-14
aI55
aI52
aI24
aI-49
aI6
aI-7
aI48
aI-1
aI-62
aI29
aI0
aI-66
aI25
aI20
aI-26
aI1
aI18
aI-41
aI-4
aI-42
aI-64
aI30
aI36
aI4
aI-69
aI18
aI-60
aI-47
aI-49
aI-67
aI-31
aI-51
aI41
aI-49
aI-25
aI53
aI56
aI44
aI-13
aI43
aI13
aI13
aI-42
aI0
aI30
aI-36
aI11
aa(lp8
I70
aI-31
aI60
aI39
aI-17
aI18
aI-53
aI28
aI-51
aI69
aI-57
aI68
aI6
aI-2
aI29
aI-46
aI-36
aI32
aI22
aI-5
aI-68
aI8
aI-67
aI-19
aI-43
aI69
aI11
aI-12
aI-61
aI-6
aI-36
aI-39
aI-25
aI-43
aI15
aI-45
aI-16
aI-64
aI-46
aI38
aI-6
aI-16
aI-60
aI1
aI-47
aI33
aI-29
aI31
aI5
aI64
aI-1
aI59
aI48
aI68
aI57
aI10
aI-68
aI-49
aI69
aI-61
aI-19
aI66
aI-25
aI-60
aI13
aI-23
aI18
aI41
aI-8
aI-70
aa(lp9
I59
aI-66
aI34
aI36
aI60
aI-13
aI-62
aI-7
aI-67
aI-44
aI-17
aI56
aI-29
aI-55
aI-36
aI-43
aI20
aI2
aI-34
aI-39
aI48
aI-16
aI10
aI25
aI34
aI4
aI-59
aI-47
aI-32
aI-44
aI-68
aI-13
aI-16
aI23
aI-65
aI40
aI-65
aI-43
aI46
aI63
aI-30
aI56
aI69
aI-63
aI-46
aI-26
aI40
aI48
aI44
aI-34
aI-36
aI54
aI60
aI3
aI69
aI-69
aI45
aI-35
aI27
aI-40
aI-28
aI43
aI37
aI-25
aI-68
aI39
aI11
aI0
aI-1
aI46
aa(lp10
I39
aI65
aI3
aI50
aI58
aI10
aI-57
aI31
aI21
aI14
aI7
aI-28
aI43
aI-41
aI14
aI-54
aI-15
aI22
aI-66
aI-31
aI-6
aI5
aI36
aI-44
aI24
aI44
aI18
aI24
aI61
aI27
aI27
aI-62
aI-35
aI-45
aI-26
aI-35
aI-68
aI54
aI-50
aI-20
aI-32
aI-38
aI37
aI3
aI35
aI-36
aI-67
aI5
aI-63
aI22
aI-5
aI-42
aI51
aI14
aI1
aI-67
aI14
aI-56
aI-59
aI58
aI-35
aI-40
aI11
aI-18
aI41
aI3
aI-48
aI23
aI18
aI-10
aa(lp11
I-28
aI44
aI15
aI-20
aI-8
aI20
aI30
aI56
aI55
aI65
aI63
aI58
aI29
aI20
aI-55
aI52
aI31
aI-43
aI35
aI-45
aI28
aI22
aI69
aI-15
aI11
aI-65
aI45
aI12
aI-5
aI-4
aI-11
aI-11
aI54
aI-67
aI5
aI-29
aI63
aI-30
aI-62
aI-14
aI-34
aI13
aI-47
aI2
aI-18
aI57
aI-49
aI-64
aI-50
aI54
aI-20
aI6
aI37
aI-60
aI37
aI56
aI33
aI-61
aI49
aI-66
aI54
aI60
aI-27
aI33
aI-35
aI-50
aI-12
aI34
aI-36
aI-50
aa(lp12
I6
aI-42
aI-22
aI-12
aI-61
aI-61
aI20
aI-11
aI41
aI32
aI-37
aI34
aI66
aI-55
aI-3
aI-29
aI-63
aI-54
aI67
aI-53
aI-44
aI16
aI63
aI-6
aI7
aI27
aI19
aI-53
aI-24
aI7
aI-11
aI-59
aI-32
aI-58
aI59
aI8
aI25
aI31
aI-42
aI28
aI4
aI-41
aI-43
aI20
aI64
aI-22
aI21
aI-20
aI7
aI-67
aI17
aI-2
aI59
aI5
aI-58
aI8
aI-63
aI36
aI-4
aI40
aI-37
aI-63
aI63
aI-65
aI-58
aI40
aI38
aI35
aI-24
aI-25
aa(lp13
I-40
aI14
aI62
aI34
aI42
aI51
aI65
aI52
aI-20
aI38
aI56
aI-63
aI19
aI24
aI54
aI-69
aI-45
aI-23
aI-58
aI25
aI-65
aI68
aI21
aI-69
aI-18
aI23
aI65
aI60
aI14
aI-12
aI34
aI-65
aI40
aI-14
aI-52
aI35
aI-39
aI-33
aI-54
aI-27
aI-18
aI27
aI14
aI-43
aI55
aI-59
aI47
aI67
aI63
aI-64
aI7
aI35
aI65
aI16
aI-64
aI-13
aI3
aI57
aI69
aI-66
aI0
aI-20
aI-39
aI41
aI-26
aI-18
aI-44
aI37
aI-69
aI-11
aa(lp14
I-36
aI34
aI64
aI-18
aI-19
aI-67
aI-11
aI-44
aI-29
aI-36
aI12
aI-39
aI34
aI-21
aI62
aI21
aI-52
aI17
aI-15
aI-48
aI-70
aI-70
aI47
aI35
aI44
aI22
aI-16
aI7
aI59
aI-55
aI7
aI-67
aI-20
aI15
aI-26
aI61
aI-35
aI-22
aI2
aI10
aI-52
aI46
aI17
aI-46
aI-11
aI40
aI-43
aI62
aI62
aI60
aI-4
aI-45
aI-6
aI-59
aI18
aI15
aI69
aI-51
aI-68
aI-36
aI-23
aI65
aI37
aI-37
aI13
aI-61
aI1
aI19
aI-41
aI-60
aa(lp15
I44
aI-33
aI-60
aI-5
aI-24
aI-28
aI-24
aI-37
aI52
aI-27
aI-60
aI-11
aI-4
aI48
aI-20
aI-24
aI-57
aI-37
aI-51
aI-9
aI-68
aI-58
aI-63
aI19
aI-62
aI14
aI5
aI9
aI31
aI-10
aI66
aI-8
aI59
aI47
aI-64
aI-50
aI-17
aI-54
aI58
aI11
aI-67
aI54
aI12
aI1
aI-14
aI14
aI42
aI-32
aI22
aI-45
aI12
aI52
aI-58
aI-7
aI67
aI-46
aI70
aI1
aI11
aI25
aI-37
aI29
aI-38
aI-37
aI-17
aI-40
aI15
aI-65
aI-5
aI-23
aa(lp16
I-69
aI70
aI-27
aI15
aI-54
aI7
aI62
aI42
aI-29
aI-11
aI44
aI13
aI-40
aI-40
aI-20
aI-67
aI-4
aI-45
aI57
aI-49
aI40
aI64
aI9
aI28
aI-48
aI26
aI55
aI-7
aI7
aI-6
aI41
aI32
aI47
aI-33
aI67
aI-3
aI18
aI66
aI-7
aI61
aI15
aI-63
aI-50
aI56
aI-19
aI7
aI53
aI64
aI-46
aI-61
aI11
aI47
aI19
aI-30
aI59
aI-27
aI-50
aI-38
aI52
aI-41
aI-55
aI-65
aI-57
aI42
aI-57
aI50
aI21
aI29
aI-43
aI-20
aa(lp17
I-65
aI38
aI6
aI32
aI-66
aI-62
aI-39
aI-4
aI-27
aI-32
aI5
aI-20
aI33
aI64
aI44
aI50
aI9
aI-47
aI-31
aI-43
aI30
aI9
aI35
aI32
aI-27
aI-29
aI7
aI-11
aI-67
aI-62
aI-16
aI44
aI42
aI-25
aI-17
aI20
aI-26
aI-29
aI-57
aI48
aI69
aI34
aI-26
aI-17
aI49
aI0
aI-57
aI-26
aI60
aI1
aI-22
aI55
aI-38
aI-4
aI-70
aI-63
aI1
aI34
aI51
aI-41
aI-5
aI35
aI15
aI-18
aI-55
aI28
aI56
aI0
aI21
aI-53
aa(lp18
I-29
aI-34
aI-16
aI-52
aI32
aI-26
aI9
aI34
aI-51
aI25
aI-15
aI-30
aI-55
aI62
aI-5
aI-5
aI13
aI8
aI-28
aI-19
aI-8
aI-62
aI-10
aI-54
aI-39
aI57
aI69
aI55
aI-2
aI43
aI-63
aI37
aI41
aI36
aI-64
aI-40
aI-15
aI60
aI-26
aI-69
aI-41
aI-63
aI-55
aI35
aI59
aI-42
aI21
aI70
aI62
aI-54
aI63
aI-20
aI22
aI60
aI-26
aI-52
aI-3
aI-21
aI27
aI-45
aI-68
aI-13
aI-64
aI-2
aI-47
aI2
aI16
aI53
aI26
aI50
aa(lp19
I-54
aI-58
aI-37
aI32
aI39
aI-65
aI18
aI-68
aI49
aI-23
aI41
aI-9
aI-39
aI40
aI44
aI-64
aI-64
aI-59
aI57
aI-24
aI11
aI-34
aI-54
aI-57
aI18
aI13
aI43
aI34
aI19
aI-64
aI-10
aI-15
aI61
aI18
aI59
aI-27
aI-35
aI44
aI40
aI-17
aI34
aI-56
aI67
aI44
aI34
aI69
aI2
aI-29
aI-32
aI12
aI-9
aI38
aI-32
aI-11
aI48
aI-52
aI12
aI-63
aI-70
aI25
aI58
aI-25
aI61
aI25
aI-16
aI52
aI-17
aI38
aI8
aI-35
aa(lp20
I12
aI-14
aI35
aI21
aI54
aI68
aI-49
aI12
aI56
aI-52
aI-25
aI-36
aI-52
aI-26
aI3
aI-44
aI-8
aI20
aI-69
aI21
aI-49
aI33
aI16
aI-12
aI-40
aI33
aI-56
aI3
aI44
aI27
aI53
aI-32
aI-13
aI50
aI-21
aI9
aI-13
aI-37
aI-33
aI10
aI35
aI69
aI39
aI21
aI-47
aI14
aI-47
aI48
aI-69
aI-60
aI17
aI54
aI30
aI32
aI-22
aI0
aI11
aI-47
aI-55
aI-53
aI32
aI-6
aI-65
aI-49
aI28
aI-5
aI15
aI-47
aI63
aI-54
aa(lp21
I-40
aI-63
aI-33
aI-58
aI40
aI6
aI-53
aI-8
aI51
aI16
aI-62
aI37
aI-22
aI-47
aI7
aI38
aI61
aI-12
aI33
aI66
aI24
aI-21
aI61
aI-24
aI25
aI-32
aI-41
aI-69
aI-25
aI-52
aI3
aI-16
aI-61
aI69
aI-69
aI55
aI-58
aI64
aI68
aI-40
aI1
aI67
aI-61
aI-57
aI-53
aI1
aI-52
aI52
aI18
aI60
aI-38
aI-60
aI-34
aI27
aI-27
aI15
aI-21
aI-1
aI52
aI-16
aI41
aI38
aI9
aI-26
aI38
aI60
aI-44
aI66
aI50
aI-49
aa(lp22
I-46
aI-39
aI-22
aI3
aI11
aI11
aI4
aI29
aI-55
aI59
aI-67
aI1
aI-52
aI23
aI-14
aI63
aI-13
aI18
aI16
aI22
aI-55
aI-8
aI52
aI-17
aI-64
aI70
aI-33
aI-43
aI-33
aI-59
aI4
aI47
aI46
aI68
aI6
aI18
aI47
aI-2
aI-44
aI59
aI26
aI15
aI-25
aI-4
aI38
aI-55
aI24
aI69
aI14
aI-63
aI63
aI59
aI54
aI10
aI-16
aI-69
aI15
aI32
aI-22
aI-55
aI32
aI45
aI60
aI17
aI51
aI-1
aI48
aI63
aI36
aI0
aa(lp23
I-41
aI57
aI-69
aI36
aI-52
aI70
aI-14
aI7
aI-19
aI20
aI-7
aI43
aI65
aI-59
aI56
aI19
aI60
aI-27
aI-15
aI3
aI29
aI21
aI-12
aI-67
aI-39
aI33
aI65
aI-6
aI28
aI6
aI35
aI-28
aI48
aI-52
aI17
aI-17
aI-17
aI3
aI12
aI-60
aI43
aI49
aI1
aI-67
aI6
aI15
aI6
aI-36
aI57
aI4
aI-61
aI-54
aI36
aI-9
aI58
aI49
aI-40
aI-27
aI12
aI-26
aI-31
aI-23
aI-31
aI39
aI-21
aI-51
aI-38
aI-31
aI-9
aI43
aa(lp24
I-17
aI35
aI-36
aI-64
aI29
aI-55
aI-69
aI22
aI-33
aI17
aI15
aI-50
aI27
aI-57
aI-33
aI9
aI36
aI-61
aI-40
aI-17
aI-12
aI-31
aI59
aI-5
aI-68
aI28
aI36
aI-28
aI5
aI-52
aI-53
aI-3
aI-63
aI-32
aI5
aI35
aI-43
aI-3
aI-4
aI8
aI-59
aI-7
aI-61
aI-59
aI8
aI2
aI-40
aI17
aI31
aI-39
aI-12
aI-20
aI51
aI-65
aI-43
aI-45
aI-29
aI-67
aI-22
aI10
aI-12
aI-38
aI-11
aI45
aI-2
aI41
aI16
aI42
aI57
aI46
aa(lp25
I29
aI26
aI25
aI-56
aI-47
aI-65
aI-15
aI32
aI-67
aI-35
aI25
aI25
aI0
aI-25
aI-11
aI-53
aI51
aI-2
aI8
aI-53
aI55
aI70
aI11
aI13
aI-15
aI-5
aI-34
aI46
aI41
aI-15
aI27
aI34
aI34
aI66
aI-16
aI-43
aI-48
aI0
aI-30
aI-4
aI42
aI-14
aI19
aI43
aI25
aI-34
aI3
aI-28
aI-37
aI-39
aI28
aI-60
aI36
aI-50
aI1
aI11
aI-40
aI-15
aI-40
aI-45
aI-8
aI-43
aI-51
aI59
aI-51
aI-58
aI-40
aI22
aI15
aI13
aa(lp26
I40
aI-23
aI27
aI41
aI0
aI55
aI56
aI-58
aI-25
aI33
aI52
aI70
aI35
aI36
aI-45
aI-4
aI-9
aI42
aI-17
aI-12
aI19
aI62
aI35
aI33
aI-10
aI-54
aI-52
aI-32
aI68
aI20
aI-46
aI3
aI32
aI4
aI48
aI45
aI66
aI6
aI14
aI61
aI-25
aI-34
aI32
aI56
aI51
aI42
aI57
aI-40
aI-64
aI-22
aI-9
aI-66
aI-65
aI55
aI-39
aI-34
aI-9
aI30
aI6
aI-2
aI-61
aI36
aI-17
aI-62
aI62
aI-64
aI43
aI-11
aI-10
aI-21
aa(lp27
I-1
aI-22
aI-23
aI51
aI58
aI-70
aI53
aI-64
aI56
aI-17
aI-24
aI64
aI-22
aI-41
aI46
aI43
aI11
aI-59
aI9
aI-61
aI-30
aI18
aI-50
aI18
aI3
aI-12
aI36
aI-8
aI-13
aI24
aI-11
aI5
aI-59
aI28
aI20
aI-40
aI44
aI-6
aI60
aI3
aI-18
aI-55
aI6
aI-64
aI10
aI62
aI33
aI31
aI-8
aI66
aI43
aI55
aI48
aI-24
aI62
aI-65
aI59
aI26
aI49
aI-64
aI46
aI-24
aI-6
aI56
aI18
aI13
aI41
aI-6
aI-33
aI-18
aa(lp28
I52
aI-47
aI50
aI-20
aI63
aI-49
aI-6
aI67
aI-55
aI55
aI27
aI7
aI-21
aI-33
aI55
aI-36
aI6
aI1
aI-11
aI-12
aI-18
aI-28
aI-48
aI30
aI-62
aI-44
aI-9
aI-19
aI7
aI-6
aI53
aI-21
aI-17
aI-36
aI5
aI-7
aI-9
aI66
aI-64
aI-43
aI-22
aI-26
aI-4
aI-42
aI51
aI-27
aI63
aI52
aI45
aI-42
aI16
aI22
aI-38
aI53
aI-59
aI-69
aI-10
aI-36
aI48
aI-6
aI8
aI3
aI-12
aI28
aI-14
aI-24
aI56
aI-38
aI-20
aI46
aa(lp29
I31
aI-52
aI23
aI0
aI38
aI-32
aI-23
aI13
aI15
aI-57
aI52
aI-37
aI-45
aI14
aI-28
aI-41
aI48
aI16
aI59
aI46
aI-4
aI-52
aI-56
aI-16
aI43
aI2
aI69
aI-52
aI-23
aI48
aI45
aI51
aI33
aI-46
aI-39
aI-39
aI6
aI-8
aI4
aI37
aI-2
aI62
aI7
aI2
aI30
aI-22
aI-13
aI-3
aI39
aI-37
aI-14
aI-41
aI26
aI35
aI69
aI-48
aI-12
aI-45
aI8
aI-26
aI-4
aI0
aI43
aI-61
aI-64
aI32
aI12
aI-34
aI-53
aI-67
aa(lp30
I26
aI-50
aI-57
aI-8
aI-63
aI-2
aI-66
aI-46
aI-66
aI41
aI-28
aI-29
aI64
aI12
aI-53
aI39
aI39
aI-49
aI-41
aI-35
aI15
aI52
aI-43
aI-53
aI62
aI-21
aI25
aI-14
aI23
aI-44
aI-25
aI51
aI43
aI-63
aI-42
aI67
aI67
aI27
aI-70
aI-34
aI-28
aI24
aI-35
aI-53
aI62
aI-11
aI-13
aI-26
aI-31
aI30
aI67
aI-56
aI-40
aI54
aI-50
aI-30
aI57
aI25
aI48
aI-17
aI30
aI-6
aI-27
aI69
aI-11
aI-47
aI17
aI-24
aI20
aI26
aa(lp31
I-2
aI12
aI10
aI21
aI36
aI-46
aI-64
aI46
aI-62
aI-15
aI-37
aI-54
aI-30
aI15
aI-48
aI64
aI21
aI-4
aI33
aI51
aI54
aI-45
aI3
aI-24
aI-1
aI35
aI62
aI-22
aI-62
aI-31
aI54
aI-44
aI29
aI59
aI23
aI1
aI44
aI8
aI29
aI18
aI57
aI63
aI-8
aI58
aI-24
aI-57
aI17
aI20
aI49
aI-47
aI-44
aI30
aI-2
aI55
aI-16
aI-44
aI-4
aI36
aI-58
aI57
aI59
aI13
aI-45
aI65
aI-5
aI1
aI-58
aI54
aI-65
aI4
aa(lp32
I44
aI-62
aI10
aI-12
aI46
aI-61
aI44
aI-3
aI-44
aI9
aI14
aI-9
aI-33
aI-53
aI-65
aI-35
aI-68
aI-28
aI15
aI-33
aI54
aI36
aI-19
aI6
aI40
aI-17
aI-3
aI-64
aI63
aI-21
aI18
aI13
aI-67
aI-36
aI22
aI3
aI23
aI-31
aI-25
aI-22
aI19
aI-49
aI70
aI-19
aI42
aI46
aI-19
aI53
aI-59
aI-36
aI25
aI-43
aI2
aI10
aI-42
aI-61
aI4
aI56
aI30
aI40
aI-53
aI14
aI-65
aI-70
aI12
aI31
aI-60
aI69
aI-13
aI-47
aa(lp33
I-34
aI58
aI33
aI-12
aI38
aI1
aI64
aI-54
aI-65
aI-60
aI-60
aI-17
aI-50
aI-25
aI57
aI0
aI6
aI-25
aI59
aI-28
aI-23
aI-31
aI45
aI41
aI20
aI58
aI-43
aI56
aI1
aI36
aI36
aI-5
aI58
aI-25
aI-8
aI22
aI50
aI-6
aI59
aI19
aI23
aI53
aI-43
aI44
aI-59
aI21
aI7
aI34
aI-48
aI-60
aI-47
aI-1
aI-15
aI15
aI-7
aI-24
aI43
aI36
aI-20
aI5
aI-51
aI65
aI64
aI2
aI14
aI-60
aI7
aI38
aI29
aI63
aa(lp34
I40
aI27
aI8
aI30
aI40
aI51
aI37
aI37
aI54
aI-35
aI8
aI-44
aI-3
aI64
aI-13
aI-70
aI-26
aI-11
aI27
aI-38
aI54
aI36
aI35
aI-39
aI22
aI-7
aI49
aI25
aI-19
aI-42
aI2
aI2
aI13
aI7
aI-6
aI55
aI-11
aI40
aI-23
aI23
aI62
aI29
aI47
aI-33
aI32
aI-67
aI-48
aI-12
aI-13
aI-18
aI60
aI-25
aI29
aI54
aI11
aI52
aI56
aI-19
aI14
aI-26
aI61
aI21
aI-35
aI15
aI10
aI70
aI21
aI66
aI-51
aI-54
aa(lp35
I-26
aI9
aI68
aI-40
aI-45
aI26
aI-55
aI48
aI51
aI-56
aI-1
aI58
aI-15
aI-18
aI-10
aI6
aI63
aI-65
aI-25
aI58
aI-24
aI-40
aI-61
aI35
aI-56
aI-56
aI-20
aI39
aI-33
aI2
aI-64
aI-20
aI59
aI45
aI31
aI-16
aI68
aI-31
aI35
aI-66
aI36
aI67
aI-47
aI-40
aI-9
aI5
aI41
aI4
aI-22
aI-54
aI-41
aI-7
aI32
aI15
aI45
aI-35
aI5
aI0
aI-9
aI-3
aI6
aI-51
aI-45
aI-52
aI-49
aI47
aI-31
aI-16
aI19
aI18
aa(lp36
I19
aI-24
aI8
aI-16
aI-67
aI70
aI-30
aI-26
aI-63
aI-4
aI34
aI41
aI-45
aI-50
aI-8
aI-55
aI38
aI-21
aI20
aI-10
aI-68
aI39
aI-8
aI2
aI-40
aI63
aI14
aI-2
aI-38
aI-9
aI-4
aI67
aI-52
aI-31
aI59
aI-55
aI6
aI3
aI40
aI18
aI-31
aI-53
aI-9
aI-33
aI7
aI42
aI30
aI2
aI59
aI-11
aI46
aI58
aI-16
aI-18
aI1
aI-20
aI25
aI-20
aI48
aI9
aI16
aI56
aI46
aI-27
aI61
aI-14
aI8
aI-26
aI52
aI56
aa(lp37
I-61
aI-37
aI-11
aI-43
aI-66
aI-56
aI9
aI-66
aI-30
aI-36
aI-30
aI64
aI3
aI57
aI-30
aI1
aI13
aI53
aI-41
aI-2
aI-39
aI-6
aI19
aI16
aI-36
aI22
aI17
aI69
aI59
aI70
aI-50
aI62
aI42
aI-47
aI-53
aI-36
aI-51
aI35
aI42
aI-50
aI-25
aI-5
aI61
aI54
aI-70
aI-35
aI49
aI18
aI-51
aI56
aI-10
aI-53
aI4
aI21
aI65
aI-16
aI4
aI-51
aI-39
aI27
aI39
aI36
aI-32
aI8
aI62
aI-37
aI-3
aI16
aI0
aI17
aa(lp38
I-15
aI-25
aI-61
aI-60
aI43
aI-24
aI68
aI-67
aI-49
aI35
aI-54
aI-31
aI-13
aI-67
aI-25
aI25
aI-30
aI3
aI-21
aI39
aI53
aI66
aI-69
aI-63
aI-40
aI-2
aI39
aI12
aI54
aI27
aI-66
aI-1
aI67
aI54
aI42
aI62
aI-4
aI11
aI-32
aI1
aI53
aI-66
aI-33
aI67
aI-59
aI-41
aI-15
aI17
aI28
aI65
aI41
aI54
aI-44
aI-26
aI9
aI62
aI2
aI31
aI57
aI-14
aI-55
aI-23
aI-41
aI-42
aI-6
aI28
aI27
aI-42
aI22
aI61
aa(lp39
I38
aI-25
aI-62
aI-58
aI59
aI-32
aI-70
aI19
aI8
aI57
aI-52
aI0
aI22
aI33
aI53
aI12
aI22
aI14
aI56
aI-20
aI53
aI69
aI-4
aI34
aI-53
aI42
aI55
aI-13
aI51
aI24
aI-16
aI32
aI-22
aI56
aI-19
aI63
aI-42
aI-16
aI-27
aI22
aI60
aI31
aI57
aI-21
aI44
aI-6
aI-63
aI11
aI-20
aI-28
aI65
aI-39
aI-42
aI-34
aI-51
aI-64
aI-56
aI10
aI-50
aI-46
aI50
aI47
aI27
aI37
aI-26
aI48
aI-35
aI40
aI-35
aI45
aa(lp40
I-33
aI-67
aI3
aI-47
aI63
aI13
aI8
aI-54
aI3
aI55
aI-66
aI-53
aI-66
aI-52
aI25
aI31
aI-41
aI6
aI4
aI55
aI-67
aI-12
aI31
aI55
aI-25
aI-64
aI-11
aI34
aI19
aI-6
aI-17
aI-44
aI-23
aI47
aI42
aI19
aI68
aI-57
aI68
aI12
aI-4
aI50
aI-38
aI-70
aI46
aI7
aI17
aI-67
aI-40
aI-24
aI58
aI-61
aI-28
aI-59
aI-62
aI48
aI37
aI-18
aI40
aI27
aI16
aI-33
aI-5
aI59
aI-28
aI-16
aI38
aI-69
aI51
aI17
aa(lp41
I41
aI-49
aI-28
aI36
aI-16
aI9
aI-38
aI-21
aI48
aI5
aI43
aI-28
aI-5
aI-13
aI-53
aI-36
aI38
aI1
aI33
aI12
aI63
aI9
aI56
aI59
aI-33
aI-40
aI-60
aI13
aI-39
aI-25
aI47
aI27
aI19
aI-34
aI55
aI-57
aI36
aI-57
aI-56
aI22
aI34
aI-2
aI-55
aI-70
aI-46
aI11
aI55
aI54
aI-4
aI57
aI-64
aI-19
aI-41
aI27
aI-5
aI-48
aI-42
aI-16
aI-16
aI-12
aI36
aI-13
aI-29
aI-28
aI-63
aI27
aI47
aI12
aI-26
aI-36
aa(lp42
I9
aI52
aI29
aI50
aI19
aI-55
aI53
aI-53
aI-27
aI-58
aI41
aI-21
aI25
aI12
aI-10
aI-6
aI-52
aI-56
aI26
aI-24
aI28
aI-65
aI29
aI-3
aI-48
aI32
aI-51
aI64
aI-52
aI-48
aI-27
aI-42
aI-21
aI17
aI27
aI-22
aI-8
aI0
aI61
aI-39
aI-12
aI-14
aI55
aI-63
aI-21
aI59
aI52
aI8
aI-57
aI40
aI-68
aI-61
aI-34
aI18
aI53
aI-56
aI-32
aI-50
aI-13
aI5
aI45
aI-7
aI-21
aI41
aI21
aI-36
aI-7
aI-52
aI-48
aI53
aa(lp43
I-13
aI8
aI21
aI-2
aI19
aI-23
aI-30
aI-3
aI63
aI8
aI24
aI-42
aI-23
aI-38
aI5
aI66
aI23
aI-16
aI-6
aI-68
aI-11
aI-50
aI51
aI24
aI-11
aI70
aI66
aI-33
aI-5
aI59
aI27
aI-19
aI-57
aI-38
aI14
aI-11
aI-70
aI43
aI-2
aI-46
aI13
aI-50
aI19
aI59
aI7
aI-10
aI30
aI1
aI44
aI-17
aI6
aI14
aI49
aI-36
aI0
aI1
aI28
aI65
aI-1
aI37
aI-12
aI-58
aI33
aI-63
aI-46
aI-14
aI47
aI-67
aI-41
aI-1
aa(lp44
I-42
aI66
aI-45
aI-17
aI-41
aI63
aI48
aI-65
aI23
aI-49
aI35
aI-35
aI-29
aI58
aI1
aI-6
aI41
aI-64
aI38
aI66
aI-7
aI-28
aI31
aI56
aI-34
aI2
aI-47
aI63
aI-10
aI61
aI-29
aI55
aI57
aI33
aI-53
aI-47
aI30
aI36
aI68
aI22
aI6
aI50
aI30
aI59
aI56
aI-40
aI70
aI57
aI53
aI48
aI-47
aI59
aI67
aI-18
aI54
aI-1
aI-10
aI16
aI-69
aI49
aI32
aI34
aI0
aI28
aI5
aI-64
aI-11
aI13
aI38
aI-62
aa(lp45
I-14
aI-49
aI58
aI53
aI52
aI-43
aI63
aI13
aI-33
aI46
aI34
aI-27
aI26
aI-43
aI67
aI36
aI2
aI-28
aI15
aI29
aI50
aI-26
aI-56
aI64
aI-25
aI15
aI-54
aI-12
aI-52
aI67
aI-31
aI-67
aI-16
aI-50
aI20
aI-65
aI53
aI6
aI7
aI-29
aI33
aI-7
aI51
aI39
aI-59
aI-63
aI50
aI61
aI-50
aI37
aI5
aI14
aI59
aI58
aI54
aI-26
aI-2
aI3
aI-28
aI42
aI-69
aI-58
aI-51
aI-38
aI-31
aI21
aI-27
aI-25
aI64
aI-66
aa(lp46
I-20
aI-61
aI12
aI29
aI-7
aI-6
aI-48
aI-57
aI33
aI24
aI-22
aI26
aI-60
aI-51
aI48
aI-5
aI-11
aI36
aI-19
aI-3
aI-65
aI-54
aI-66
aI26
aI59
aI44
aI53
aI-46
aI-13
aI61
aI13
aI46
aI-10
aI-29
aI23
aI0
aI-3
aI-63
aI19
aI-68
aI-21
aI54
aI-49
aI1
aI-53
aI30
aI2
aI14
aI8
aI-42
aI14
aI28
aI24
aI-21
aI52
aI11
aI30
aI4
aI49
aI65
aI0
aI-70
aI55
aI-29
aI-14
aI47
aI-10
aI6
aI36
aI-61
aa(lp47
I-53
aI13
aI60
aI24
aI-25
aI9
aI-46
aI-62
aI-16
aI14
aI33
aI-63
aI39
aI34
aI33
aI7
aI64
aI-15
aI-18
aI6
aI60
aI53
aI-10
aI-33
aI28
aI-37
aI-26
aI17
aI22
aI-19
aI27
aI48
aI-41
aI61
aI3
aI-61
aI-54
aI63
aI-44
aI43
aI-50
aI-15
aI41
aI-59
aI20
aI5
aI-36
aI-50
aI-66
aI-55
aI68
aI-64
aI-15
aI-42
aI-60
aI65
aI15
aI-20
aI-48
aI-61
aI-10
aI43
aI-28
aI-26
aI-57
aI49
aI-67
aI45
aI0
aI25
aa(lp48
I-23
aI22
aI-57
aI41
aI-63
aI38
aI-23
aI-67
aI62
aI26
aI43
aI-24
aI-42
aI-17
aI63
aI-58
aI51
aI-31
aI-60
aI-38
aI51
aI7
aI14
aI-13
aI-42
aI-61
aI-3
aI-27
aI-15
aI35
aI36
aI-52
aI68
aI10
aI26
aI68
aI1
aI-3
aI-25
aI62
aI-44
aI49
aI26
aI-60
aI-2
aI-53
aI6
aI-65
aI33
aI-39
aI30
aI7
aI-40
aI44
aI-18
aI50
aI-21
aI-9
aI-39
aI59
aI-24
aI36
aI57
aI46
aI55
aI-62
aI9
aI42
aI54
aI13
aa(lp49
I38
aI21
aI-11
aI69
aI27
aI34
aI26
aI-43
aI53
aI-41
aI58
aI20
aI-62
aI-47
aI-48
aI-70
aI29
aI-16
aI8
aI52
aI38
aI-37
aI40
aI46
aI12
aI-22
aI-62
aI-4
aI63
aI-16
aI-27
aI67
aI69
aI-22
aI50
aI-53
aI-1
aI34
aI44
aI57
aI-61
aI3
aI61
aI44
aI51
aI34
aI62
aI34
aI-68
aI-36
aI13
aI-40
aI19
aI-37
aI-13
aI42
aI-43
aI-3
aI40
aI-38
aI46
aI50
aI-30
aI3
aI52
aI-56
aI4
aI17
aI25
aI58
aa(lp50
I-67
aI-28
aI-62
aI-35
aI70
aI-34
aI32
aI-27
aI26
aI61
aI-13
aI0
aI63
aI60
aI44
aI24
aI-22
aI-11
aI-67
aI49
aI17
aI70
aI-36
aI-59
aI49
aI-17
aI-58
aI-53
aI-53
aI-15
aI0
aI-53
aI11
aI3
aI19
aI5
aI25
aI4
aI20
aI61
aI61
aI-6
aI31
aI-9
aI25
aI64
aI9
aI-34
aI-14
aI-37
aI-4
aI15
aI64
aI25
aI-47
aI25
aI-35
aI-7
aI8
aI31
aI13
aI-54
aI50
aI49
aI-64
aI-63
aI-22
aI-17
aI-18
aI-61
aa(lp51
I-11
aI-35
aI-51
aI-2
aI54
aI-51
aI-28
aI6
aI-18
aI-46
aI45
aI60
aI-55
aI-12
aI-3
aI48
aI-56
aI28
aI48
aI43
aI-50
aI-50
aI38
aI-37
aI6
aI53
aI-67
aI-11
aI-48
aI53
aI-46
aI-38
aI5
aI-4
aI60
aI-21
aI38
aI-35
aI-36
aI28
aI66
aI5
aI61
aI0
aI-7
aI-64
aI23
aI-27
aI-57
aI7
aI-29
aI-22
aI-22
aI19
aI-1
aI63
aI-31
aI-28
aI-7
aI12
aI14
aI18
aI32
aI18
aI38
aI-9
aI16
aI-63
aI4
aI-23
aa(lp52
I52
aI66
aI-64
aI-22
aI23
aI30
aI35
aI25
aI-40
aI1
aI58
aI-54
aI3
aI-18
aI-47
aI-14
aI-32
aI15
aI38
aI-59
aI-17
aI-34
aI58
aI26
aI56
aI46
aI-1
aI45
aI-13
aI-65
aI22
aI-2
aI30
aI-52
aI26
aI-68
aI29
aI4
aI36
aI-10
aI-49
aI-51
aI69
aI-29
aI-9
aI35
aI65
aI-67
aI-6
aI40
aI-42
aI-48
aI-15
aI32
aI51
aI25
aI-27
aI70
aI26
aI-36
aI12
aI35
aI-20
aI37
aI-25
aI9
aI-45
aI-39
aI-62
aI9
aa(lp53
I36
aI70
aI-44
aI6
aI17
aI20
aI3
aI44
aI-13
aI-13
aI-36
aI-63
aI-42
aI37
aI17
aI52
aI-62
aI15
aI60
aI12
aI-32
aI41
aI-28
aI50
aI65
aI68
aI68
aI-7
aI63
aI-58
aI-26
aI-42
aI-26
aI-61
aI-68
aI-68
aI50
aI-14
aI-7
aI32
aI14
aI23
aI-12
aI38
aI8
aI-34
aI22
aI-60
aI48
aI-1
aI-16
aI26
aI-62
aI18
aI-45
aI41
aI62
aI1
aI14
aI51
aI46
aI-3
aI15
aI27
aI-37
aI23
aI67
aI15
aI-19
aI8
aa(lp54
I44
aI29
aI-68
aI-52
aI12
aI0
aI51
aI6
aI-47
aI-19
aI-2
aI-54
aI53
aI52
aI69
aI66
aI70
aI-48
aI-27
aI58
aI43
aI-3
aI67
aI64
aI-27
aI-67
aI47
aI51
aI64
aI-4
aI-40
aI29
aI-47
aI-31
aI45
aI10
aI10
aI38
aI4
aI16
aI26
aI66
aI-66
aI25
aI3
aI-63
aI36
aI-25
aI-18
aI20
aI-48
aI36
aI39
aI47
aI-11
aI-3
aI50
aI4
aI4
aI22
aI10
aI21
aI19
aI-50
aI-12
aI-22
aI-23
aI27
aI49
aI-48
aa(lp55
I-70
aI58
aI50
aI-62
aI-27
aI-43
aI-42
aI7
aI-55
aI-63
aI-27
aI59
aI50
aI-2
aI-56
aI-33
aI-9
aI29
aI0
aI13
aI-16
aI-2
aI49
aI59
aI42
aI-11
aI6
aI-14
aI34
aI11
aI40
aI16
aI-50
aI50
aI64
aI-55
aI-56
aI-15
aI-28
aI20
aI2
aI-17
aI48
aI-3
aI27
aI66
aI-49
aI14
aI-29
aI55
aI-42
aI-25
aI7
aI47
aI69
aI-43
aI-10
aI67
aI-22
aI-66
aI-24
aI63
aI-43
aI-27
aI56
aI14
aI-63
aI-21
aI15
aI-36
aa(lp56
I16
aI-44
aI-45
aI34
aI-8
aI-19
aI21
aI50
aI33
aI-36
aI-15
aI-69
aI-8
aI-34
aI-67
aI-17
aI-39
aI-62
aI-16
aI-3
aI-49
aI-37
aI-50
aI13
aI-18
aI-44
aI39
aI7
aI-18
aI-16
aI-9
aI-65
aI-11
aI27
aI36
aI-63
aI8
aI-13
aI-56
aI35
aI23
aI-40
aI51
aI-11
aI-64
aI-35
aI-55
aI-38
aI-30
aI52
aI-61
aI56
aI33
aI-23
aI8
aI39
aI-21
aI23
aI13
aI63
aI7
aI-9
aI-27
aI68
aI-7
aI-60
aI-62
aI37
aI10
aI-16
aa(lp57
I26
aI66
aI-38
aI58
aI-69
aI-52
aI25
aI14
aI-61
aI-20
aI-30
aI41
aI22
aI49
aI-57
aI3
aI24
aI56
aI4
aI-44
aI-24
aI57
aI41
aI28
aI-1
aI-25
aI-20
aI31
aI-69
aI-3
aI5
aI7
aI1
aI26
aI8
aI22
aI-43
aI-53
aI63
aI39
aI19
aI44
aI35
aI-21
aI39
aI-18
aI-10
aI70
aI21
aI23
aI64
aI-28
aI-10
aI-46
aI-38
aI13
aI-30
aI6
aI-40
aI5
aI70
aI-55
aI-6
aI69
aI69
aI6
aI40
aI50
aI6
aI-35
aa(lp58
I-40
aI-60
aI-15
aI-38
aI63
aI-63
aI3
aI29
aI-57
aI-29
aI-36
aI31
aI-44
aI36
aI68
aI42
aI-15
aI23
aI27
aI-3
aI21
aI21
aI-5
aI39
aI-39
aI61
aI-27
aI-63
aI15
aI-43
aI-27
aI-21
aI23
aI-70
aI3
aI20
aI24
aI21
aI36
aI-8
aI18
aI-60
aI-64
aI-10
aI-69
aI-17
aI-2
aI30
aI-34
aI17
aI-37
aI-52
aI43
aI59
aI45
aI-42
aI55
aI-40
aI53
aI38
aI18
aI6
aI23
aI-63
aI57
aI-63
aI-35
aI54
aI-58
aI-13
aa(lp59
I28
aI-8
aI-10
aI-33
aI14
aI64
aI9
aI60
aI-49
aI-30
aI-31
aI-42
aI-21
aI36
aI-12
aI-44
aI62
aI40
aI2
aI13
aI-25
aI40
aI-59
aI55
aI67
aI25
aI-45
aI-39
aI-6
aI17
aI-35
aI-46
aI22
aI-56
aI-34
aI-50
aI52
aI3
aI-37
aI-12
aI8
aI11
aI38
aI70
aI-29
aI-56
aI12
aI44
aI32
aI25
aI-51
aI-14
aI-68
aI7
aI0
aI-18
aI-5
aI53
aI58
aI-1
aI67
aI-49
aI52
aI-9
aI-29
aI-63
aI18
aI28
aI57
aI-49
aa(lp60
I-44
aI-9
aI-65
aI-65
aI-63
aI20
aI16
aI29
aI56
aI22
aI1
aI-59
aI69
aI-16
aI-58
aI-60
aI-14
aI-23
aI-26
aI2
aI68
aI39
aI-61
aI-30
aI-4
aI36
aI63
aI-44
aI33
aI-45
aI-19
aI-4
aI-69
aI-12
aI-35
aI-45
aI-67
aI46
aI-36
aI-17
aI16
aI-58
aI13
aI-5
aI-44
aI-2
aI-54
aI29
aI-53
aI42
aI-67
aI-18
aI-19
aI69
aI-33
aI3
aI58
aI-47
aI-27
aI45
aI34
aI52
aI-14
aI12
aI19
aI-61
aI-52
aI-35
aI-34
aI4
aa(lp61
I-62
aI3
aI-8
aI34
aI-8
aI25
aI-28
aI-48
aI60
aI21
aI-68
aI-14
aI15
aI12
aI-62
aI-13
aI-4
aI38
aI-22
aI7
aI-64
aI64
aI-20
aI2
aI-14
aI-22
aI-57
aI6
aI-24
aI35
aI-29
aI60
aI48
aI40
aI31
aI-52
aI50
aI15
aI-63
aI-38
aI-58
aI-26
aI-25
aI-51
aI-45
aI47
aI-17
aI53
aI-17
aI25
aI-49
aI17
aI26
aI-59
aI49
aI-18
aI-25
aI-4
aI-47
aI-11
aI38
aI46
aI-67
aI-56
aI49
aI44
aI-9
aI11
aI51
aI25
aa(lp62
I-22
aI-29
aI40
aI-51
aI7
aI-32
aI28
aI-50
aI2
aI-31
aI39
aI-1
aI-6
aI15
aI31
aI-63
aI56
aI-45
aI-39
aI-56
aI-62
aI22
aI51
aI32
aI48
aI65
aI-55
aI63
aI-3
aI15
aI55
aI-18
aI-11
aI62
aI29
aI59
aI63
aI-17
aI58
aI-55
aI-25
aI-14
aI-41
aI28
aI-56
aI-41
aI44
aI41
aI63
aI-26
aI-26
aI-6
aI63
aI39
aI35
aI-39
aI-63
aI14
aI50
aI25
aI-24
aI-59
aI44
aI-50
aI61
aI12
aI-53
aI59
aI60
aI36
aa(lp63
I-42
aI-45
aI-39
aI-60
aI-32
aI-55
aI8
aI-51
aI30
aI-24
aI-18
aI-38
aI-65
aI-59
aI14
aI-34
aI27
aI48
aI-43
aI35
aI20
aI-5
aI-42
aI-70
aI36
aI-35
aI39
aI19
aI-40
aI54
aI68
aI-14
aI-4
aI-1
aI-55
aI-64
aI-20
aI-47
aI27
aI1
aI-4
aI44
aI-43
aI2
aI-12
aI70
aI25
aI59
aI-2
aI36
aI-16
aI-29
aI62
aI55
aI9
aI32
aI19
aI62
aI36
aI50
aI35
aI67
aI43
aI70
aI-39
aI17
aI-23
aI-14
aI70
aI-43
aa(lp64
I31
aI-45
aI11
aI-22
aI-15
aI38
aI-50
aI-60
aI2
aI-32
aI11
aI-55
aI-60
aI-58
aI-23
aI55
aI-10
aI33
aI26
aI-16
aI-35
aI-32
aI17
aI-22
aI-21
aI-69
aI-7
aI70
aI-39
aI62
aI-37
aI0
aI-52
aI-55
aI6
aI35
aI60
aI-70
aI4
aI-59
aI-45
aI-19
aI-4
aI36
aI30
aI-45
aI15
aI-7
aI66
aI-8
aI-48
aI-36
aI-4
aI-41
aI-46
aI18
aI-44
aI50
aI60
aI-16
aI31
aI-65
aI16
aI-59
aI-49
aI-54
aI5
aI-18
aI-46
aI-15
aa(lp65
I59
aI-51
aI-39
aI-44
aI36
aI57
aI-31
aI51
aI69
aI51
aI58
aI9
aI16
aI-26
aI-54
aI49
aI22
aI-26
aI-5
aI-54
aI61
aI-13
aI45
aI-40
aI-47
aI-43
aI27
aI38
aI-10
aI-26
aI61
aI-49
aI-9
aI64
aI38
aI34
aI70
aI-45
aI-68
aI37
aI-18
aI38
aI-37
aI40
aI-31
aI-58
aI-51
aI31
aI-18
aI17
aI-43
aI-39
aI26
aI-33
aI-55
aI25
aI24
aI65
aI-14
aI-15
aI-36
aI-21
aI29
aI-23
aI0
aI4
aI56
aI47
aI-39
aI-15
aa(lp66
I47
aI22
aI67
aI-11
aI-22
aI52
aI36
aI-33
aI49
aI26
aI-44
aI63
aI26
aI-27
aI36
aI51
aI-37
aI-62
aI-40
aI-61
aI19
aI-29
aI0
aI-50
aI-46
aI46
aI-54
aI43
aI48
aI53
aI-26
aI65
aI-29
aI-38
aI-58
aI32
aI58
aI13
aI65
aI-7
aI68
aI-5
aI-51
aI-12
aI-64
aI67
aI-6
aI47
aI13
aI16
aI-13
aI-66
aI1
aI56
aI65
aI21
aI59
aI67
aI-5
aI42
aI64
aI37
aI23
aI-19
aI23
aI50
aI63
aI42
aI-17
aI54
aa(lp67
I35
aI-40
aI43
aI-40
aI-29
aI-57
aI-20
aI-29
aI-25
aI-48
aI-46
aI-9
aI-60
aI69
aI-13
aI-70
aI44
aI45
aI-44
aI-44
aI-33
aI-10
aI-54
aI-5
aI-8
aI-48
aI-64
aI-37
aI38
aI62
aI-18
aI32
aI-43
aI59
aI41
aI66
aI36
aI-53
aI-58
aI-22
aI-32
aI10
aI12
aI-49
aI-65
aI35
aI16
aI10
aI25
aI36
aI0
aI55
aI29
aI-20
aI35
aI3
aI44
aI-35
aI-37
aI0
aI-50
aI-46
aI-57
aI1
aI27
aI12
aI-26
aI7
aI-63
aI19
aa(lp68
I58
aI68
aI-40
aI-22
aI-8
aI38
aI24
aI42
aI9
aI-38
aI64
aI-35
aI-48
aI8
aI26
aI-43
aI8
aI-37
aI52
aI-51
aI25
aI41
aI-29
aI-18
aI-35
aI-19
aI35
aI-43
aI3
aI-24
aI-7
aI3
aI-23
aI-32
aI-5
aI31
aI12
aI15
aI-59
aI-55
aI-20
aI-27
aI15
aI42
aI-1
aI-68
aI-47
aI35
aI-43
aI-9
aI44
aI-24
aI-3
aI25
aI17
aI-37
aI-6
aI3
aI-24
aI-30
aI3
aI49
aI-29
aI-14
aI6
aI-32
aI16
aI-34
aI51
aI-30
aa(lp69
I-31
aI-66
aI50
aI-59
aI-33
aI23
aI68
aI49
aI-39
aI3
aI20
aI63
aI-4
aI-59
aI23
aI-50
aI1
aI9
aI-67
aI-57
aI37
aI19
aI34
aI-59
aI70
aI-50
aI-58
aI28
aI22
aI-36
aI70
aI-55
aI55
aI28
aI32
aI13
aI-20
aI8
aI9
aI10
aI-70
aI1
aI-45
aI-62
aI-59
aI-22
aI65
aI-24
aI-60
aI36
aI5
aI-56
aI63
aI-22
aI-65
aI62
aI44
aI-6
aI-7
aI14
aI-18
aI-43
aI-33
aI40
aI59
aI-3
aI-15
aI12
aI-12
aI-8
aa(lp70
I-33
aI-61
aI-27
aI53
aI-23
aI56
aI-27
aI-13
aI38
aI-3
aI-21
aI-16
aI-53
aI-54
aI42
aI34
aI-29
aI5
aI-67
aI50
aI36
aI40
aI-12
aI8
aI48
aI-26
aI49
aI32
aI58
aI-63
aI16
aI15
aI9
aI16
aI33
aI64
aI5
aI48
aI47
aI62
aI1
aI3
aI56
aI-6
aI-42
aI-12
aI-38
aI43
aI-60
aI10
aI49
aI-69
aI-56
aI-42
aI-11
aI-64
aI67
aI39
aI-64
aI52
aI56
aI-57
aI-56
aI-22
aI22
aI-61
aI-56
aI-35
aI40
aI36
aa(lp71
I25
aI67
aI67
aI53
aI-38
aI24
aI70
aI-33
aI-48
aI-1
aI-61
aI-50
aI12
aI41
aI15
aI55
aI47
aI-70
aI-60
aI48
aI-25
aI5
aI-3
aI55
aI-47
aI-10
aI29
aI10
aI-16
aI64
aI27
aI-41
aI-2
aI-57
aI43
aI26
aI61
aI34
aI-34
aI17
aI21
aI55
aI42
aI-46
aI48
aI-30
aI-17
aI-44
aI25
aI14
aI-31
aI52
aI40
aI-10
aI-15
aI13
aI28
aI-21
aI3
aI9
aI23
aI45
aI10
aI15
aI-54
aI-47
aI18
aI64
aI-51
aI16
aa(lp72
I13
aI69
aI48
aI63
aI-21
aI50
aI-42
aI-49
aI16
aI-23
aI64
aI-61
aI7
aI56
aI51
aI-45
aI35
aI63
aI49
aI9
aI-55
aI-57
aI-49
aI-9
aI-67
aI9
aI-50
aI-47
aI-34
aI-10
aI26
aI-68
aI-51
aI32
aI70
aI-64
aI19
aI11
aI-70
aI-51
aI-8
aI40
aI-49
aI-41
aI30
aI18
aI-48
aI-56
aI25
aI56
aI25
aI-58
aI2
aI6
aI-44
aI-33
aI41
aI-4
aI40
aI64
aI-63
aI53
aI-51
aI57
aI-43
aI68
aI20
aI-54
aI-12
aI-48
aa(lp73
I-67
aI0
aI-20
aI-18
aI-53
aI-65
aI11
aI-4
aI57
aI16
aI-50
aI11
aI-1
aI43
aI26
aI-11
aI-10
aI44
aI10
aI-16
aI31
aI31
aI43
aI50
aI-39
aI-24
aI36
aI-52
aI3
aI9
aI-25
aI-70
aI2
aI36
aI-19
aI-40
aI-24
aI-61
aI-56
aI-61
aI8
aI-61
aI-54
aI-11
aI28
aI51
aI50
aI12
aI-63
aI26
aI17
aI-67
aI-22
aI-22
aI-52
aI9
aI-6
aI6
aI-65
aI44
aI21
aI-29
aI8
aI-21
aI-7
aI-10
aI-51
aI31
aI9
aI38
aa(lp74
I3
aI12
aI8
aI60
aI28
aI23
aI66
aI23
aI-28
aI-12
aI-49
aI21
aI62
aI5
aI-56
aI59
aI23
aI-62
aI13
aI-50
aI-4
aI-57
aI-9
aI-70
aI-68
aI-13
aI-37
aI23
aI-44
aI-9
aI22
aI60
aI29
aI25
aI41
aI-40
aI66
aI-50
aI-13
aI14
aI-21
aI70
aI-61
aI40
aI-38
aI53
aI-47
aI-19
aI30
aI41
aI-48
aI10
aI38
aI-42
aI-43
aI-64
aI14
aI-12
aI-13
aI42
aI29
aI-30
aI-24
aI-42
aI63
aI23
aI-11
aI66
aI-10
aI10
aa(lp75
I-69
aI-22
aI-15
aI-44
aI36
aI-17
aI16
aI-51
aI-45
aI20
aI-70
aI-34
aI-11
aI50
aI-42
aI-6
aI27
aI-34
aI64
aI-31
aI-12
aI60
aI-67
aI26
aI-22
aI8
aI6
aI-52
aI-23
aI36
aI33
aI-46
aI-36
aI-63
aI66
aI5
aI16
aI61
aI14
aI0
aI-60
aI24
aI6
aI30
aI70
aI-61
aI32
aI32
aI20
aI17
aI-33
aI39
aI-24
aI-60
aI12
aI47
aI33
aI24
aI-53
aI64
aI34
aI-4
aI-50
aI4
aI-28
aI57
aI-26
aI29
aI6
aI-68
aa(lp76
I-32
aI-10
aI68
aI-23
aI66
aI-16
aI-29
aI-14
aI65
aI25
aI-47
aI1
aI-61
aI-4
aI-57
aI10
aI17
aI-21
aI-45
aI52
aI47
aI-15
aI-59
aI33
aI-38
aI30
aI70
aI-44
aI3
aI-27
aI-23
aI-7
aI25
aI50
aI32
aI50
aI41
aI-22
aI-13
aI61
aI-39
aI12
aI-70
aI32
aI-8
aI30
aI21
aI-18
aI35
aI-26
aI-66
aI-64
aI-7
aI14
aI-12
aI2
aI21
aI-52
aI-70
aI-39
aI56
aI29
aI-44
aI16
aI1
aI-37
aI-66
aI43
aI57
aI14
aa(lp77
I-6
aI67
aI-38
aI-24
aI24
aI31
aI42
aI-17
aI-50
aI23
aI51
aI10
aI-50
aI-32
aI6
aI21
aI31
aI16
aI69
aI51
aI59
aI27
aI54
aI-57
aI-62
aI58
aI23
aI16
aI36
aI61
aI-2
aI-19
aI-12
aI-31
aI-25
aI-11
aI40
aI18
aI50
aI21
aI-58
aI27
aI19
aI4
aI-5
aI-45
aI65
aI-56
aI-60
aI25
aI11
aI30
aI-28
aI-15
aI20
aI38
aI29
aI-67
aI16
aI-61
aI-19
aI-8
aI-63
aI40
aI-10
aI67
aI-6
aI36
aI5
aI-59
aa(lp78
I-24
aI68
aI58
aI-13
aI-10
aI-35
aI56
aI-18
aI60
aI-28
aI-34
aI25
aI-43
aI-12
aI-11
aI-37
aI48
aI-3
aI49
aI8
aI15
aI-3
aI-10
aI-56
aI-49
aI48
aI-57
aI-41
aI10
aI-50
aI19
aI-62
aI-64
aI-64
aI-30
aI-60
aI11
aI-60
aI62
aI-69
aI12
aI8
aI28
aI47
aI67
aI50
aI-41
aI-6
aI-36
aI24
aI22
aI64
aI10
aI-2
aI-11
aI1
aI52
aI64
aI-8
aI48
aI-17
aI31
aI-11
aI6
aI63
aI9
aI-35
aI-18
aI26
aI12
aa(lp79
I-34
aI17
aI-58
aI44
aI-52
aI-38
aI-21
aI-30
aI54
aI-66
aI59
aI33
aI-46
aI-16
aI-47
aI52
aI70
aI-56
aI-14
aI25
aI10
aI53
aI-49
aI30
aI-47
aI25
aI48
aI-8
aI12
aI9
aI57
aI28
aI-49
aI49
aI47
aI-69
aI52
aI-46
aI-22
aI69
aI-9
aI-23
aI-29
aI-20
aI15
aI45
aI-38
aI-66
aI54
aI35
aI-19
aI-20
aI64
aI31
aI12
aI-6
aI-38
aI56
aI-33
aI-13
aI39
aI37
aI19
aI-66
aI29
aI2
aI-7
aI-46
aI-52
aI29
aa(lp80
I-63
aI34
aI-38
aI43
aI-52
aI-62
aI1
aI-52
aI-50
aI-6
aI-2
aI-33
aI57
aI-6
aI-30
aI40
aI-18
aI17
aI-42
aI23
aI36
aI-46
aI31
aI1
aI-43
aI65
aI-56
aI-12
aI-69
aI58
aI51
aI-4
aI51
aI-42
aI-37
aI-20
aI-15
aI-19
aI-20
aI28
aI-66
aI41
aI5
aI53
aI-36
aI35
aI14
aI-57
aI-54
aI28
aI-3
aI63
aI-43
aI18
aI-9
aI38
aI66
aI27
aI-31
aI8
aI-39
aI53
aI-29
aI23
aI-4
aI-58
aI46
aI-69
aI8
aI-19
aa(lp81
I-30
aI27
aI31
aI-21
aI-30
aI-41
aI2
aI-41
aI70
aI41
aI-2
aI-50
aI-58
aI60
aI67
aI-53
aI-18
aI60
aI-18
aI-42
aI-50
aI11
aI68
aI4
aI-44
aI-21
aI-52
aI-38
aI41
aI-38
aI-45
aI-48
aI35
aI49
aI-58
aI-23
aI20
aI24
aI-1
aI45
aI-57
aI22
aI33
aI-4
aI-65
aI50
aI36
aI-25
aI43
aI57
aI36
aI-65
aI61
aI-41
aI-48
aI39
aI-26
aI53
aI-53
aI36
aI-56
aI8
aI-44
aI-25
aI2
aI7
aI-60
aI-24
aI-46
aI-39
aa(lp82
I-41
aI35
aI-41
aI23
aI49
aI-26
aI-20
aI-22
aI29
aI2
aI-69
aI-29
aI-70
aI-19
aI21
aI-6
aI37
aI17
aI44
aI-62
aI43
aI47
aI-36
aI-26
aI-67
aI-35
aI48
aI16
aI45
aI46
aI-7
aI-23
aI-51
aI-30
aI-49
aI23
aI25
aI41
aI4
aI63
aI66
aI11
aI57
aI-21
aI12
aI-45
aI-37
aI-30
aI20
aI51
aI-30
aI-68
aI-68
aI-35
aI4
aI12
aI29
aI-20
aI-22
aI-46
aI-23
aI-34
aI-46
aI-5
aI62
aI-31
aI-10
aI28
aI-47
aI-34
aa(lp83
I-12
aI-37
aI-32
aI-55
aI18
aI-16
aI22
aI-11
aI-36
aI-60
aI18
aI-56
aI62
aI-57
aI-45
aI-29
aI9
aI18
aI-24
aI-29
aI-34
aI36
aI17
aI-34
aI12
aI-53
aI13
aI-67
aI-37
aI28
aI19
aI-42
aI45
aI29
aI-24
aI27
aI-1
aI18
aI-1
aI-62
aI54
aI19
aI-30
aI-37
aI-16
aI4
aI33
aI42
aI25
aI20
aI42
aI1
aI16
aI-60
aI-16
aI-29
aI-42
aI-54
aI-4
aI29
aI-1
aI-43
aI-21
aI-51
aI-46
aI53
aI-35
aI-59
aI-12
aI-37
aa(lp84
I55
aI-62
aI-66
aI-59
aI-70
aI-57
aI31
aI-48
aI-65
aI43
aI-1
aI48
aI-47
aI-35
aI33
aI47
aI13
aI66
aI30
aI33
aI31
aI-19
aI53
aI52
aI-14
aI-44
aI1
aI30
aI46
aI-14
aI-61
aI53
aI31
aI-22
aI40
aI4
aI-23
aI-44
aI-67
aI54
aI63
aI-3
aI-59
aI1
aI25
aI-34
aI-64
aI-3
aI-17
aI-36
aI64
aI21
aI-61
aI-42
aI-39
aI67
aI-58
aI51
aI6
aI-10
aI-48
aI-7
aI-58
aI51
aI-66
aI-51
aI35
aI42
aI52
aI-32
aa(lp85
I38
aI13
aI57
aI18
aI-68
aI-44
aI-44
aI13
aI9
aI-42
aI42
aI39
aI-27
aI39
aI25
aI32
aI-54
aI11
aI41
aI-60
aI3
aI-65
aI55
aI39
aI-35
aI49
aI45
aI36
aI-24
aI-57
aI39
aI-36
aI-35
aI65
aI-24
aI56
aI-15
aI-14
aI15
aI38
aI-37
aI-17
aI-41
aI-70
aI21
aI20
aI-56
aI20
aI51
aI13
aI32
aI16
aI60
aI-3
aI-54
aI11
aI-21
aI51
aI-48
aI-55
aI-32
aI20
aI-39
aI-7
aI-23
aI1
aI-42
aI-16
aI38
aI50
aa(lp86
I-67
aI-69
aI-2
aI5
aI-21
aI3
aI-9
aI-30
aI-14
aI66
aI-8
aI-9
aI30
aI-69
aI26
aI-22
aI47
aI2
aI-18
aI61
aI49
aI44
aI-18
aI39
aI-48
aI-38
aI50
aI9
aI37
aI69
aI-28
aI66
aI20
aI61
aI58
aI54
aI5
aI33
aI-19
aI44
aI8
aI15
aI-41
aI-26
aI43
aI-21
aI-33
aI0
aI-67
aI-11
aI6
aI-58
aI-19
aI-40
aI61
aI30
aI55
aI51
aI17
aI47
aI60
aI14
aI18
aI-16
aI59
aI-24
aI-66
aI10
aI0
aI-26
aa(lp87
I32
aI57
aI-23
aI61
aI-26
aI12
aI-34
aI59
aI-3
aI0
aI-63
aI46
aI45
aI-70
aI-28
aI-64
aI-59
aI-43
aI12
aI-48
aI51
aI57
aI-39
aI-48
aI15
aI-37
aI30
aI42
aI14
aI-15
aI-8
aI62
aI45
aI1
aI-34
aI3
aI-25
aI56
aI-29
aI30
aI64
aI32
aI29
aI36
aI14
aI27
aI38
aI54
aI4
aI12
aI46
aI-7
aI6
aI23
aI64
aI28
aI42
aI27
aI70
aI7
aI22
aI-28
aI58
aI60
aI-7
aI43
aI-11
aI62
aI-50
aI12
aa(lp88
I-5
aI30
aI-65
aI54
aI14
aI-32
aI-4
aI-12
aI26
aI29
aI51
aI-54
aI29
aI25
aI61
aI-6
aI22
aI4
aI59
aI49
aI56
aI49
aI-1
aI-29
aI52
aI-32
aI65
aI59
aI-47
aI-70
aI66
aI-20
aI-23
aI14
aI33
aI-63
aI55
aI-58
aI30
aI16
aI-48
aI45
aI40
aI-29
aI-26
aI68
aI-52
aI9
aI-40
aI-6
aI60
aI36
aI-20
aI-46
aI-70
aI51
aI46
aI34
aI35
aI-37
aI35
aI64
aI-60
aI-5
aI14
aI-30
aI-20
aI31
aI-21
aI-49
aa(lp89
I-24
aI-54
aI63
aI-21
aI-3
aI4
aI69
aI-64
aI40
aI-40
aI-56
aI25
aI60
aI7
aI-13
aI41
aI14
aI70
aI52
aI-16
aI30
aI30
aI66
aI-5
aI-8
aI46
aI-54
aI19
aI43
aI-69
aI68
aI30
aI46
aI51
aI27
aI-6
aI62
aI52
aI10
aI-17
aI-34
aI33
aI-4
aI-58
aI-58
aI-3
aI38
aI-52
aI42
aI20
aI-34
aI60
aI53
aI-25
aI65
aI-60
aI-13
aI-40
aI22
aI-27
aI46
aI50
aI-35
aI21
aI-69
aI-20
aI4
aI-3
aI-20
aI-41
aa(lp90
I-34
aI-17
aI-5
aI7
aI22
aI-62
aI2
aI-24
aI38
aI-48
aI-61
aI49
aI-18
aI-3
aI53
aI-69
aI0
aI-11
aI-67
aI10
aI5
aI53
aI32
aI-42
aI-64
aI-56
aI-58
aI-70
aI-41
aI-11
aI-19
aI-7
aI9
aI-70
aI10
aI-57
aI35
aI8
aI-45
aI32
aI55
aI35
aI-36
aI50
aI-53
aI66
aI-6
aI57
aI-41
aI-19
aI68
aI19
aI-12
aI41
aI-10
aI-31
aI52
aI14
aI-15
aI-16
aI45
aI-39
aI-31
aI48
aI38
aI-19
aI-24
aI7
aI-40
aI68
aa(lp91
I-12
aI68
aI-47
aI-34
aI-66
aI-10
aI53
aI-39
aI2
aI-64
aI-41
aI-15
aI-47
aI-7
aI43
aI-50
aI20
aI-70
aI-3
aI-60
aI39
aI-3
aI59
aI22
aI58
aI44
aI-35
aI46
aI20
aI-39
aI-15
aI-48
aI-37
aI30
aI-68
aI-11
aI56
aI1
aI-63
aI25
aI17
aI-20
aI-23
aI58
aI23
aI30
aI18
aI25
aI-53
aI2
aI-58
aI61
aI30
aI23
aI43
aI32
aI-46
aI-21
aI25
aI-12
aI-56
aI-43
aI32
aI67
aI57
aI23
aI41
aI16
aI-7
aI-16
aa(lp92
I-61
aI50
aI-11
aI8
aI22
aI16
aI1
aI-32
aI42
aI-56
aI-27
aI36
aI52
aI60
aI11
aI10
aI27
aI59
aI15
aI19
aI-62
aI-17
aI-58
aI48
aI-65
aI-20
aI58
aI20
aI0
aI64
aI-14
aI-56
aI26
aI10
aI26
aI53
aI57
aI-15
aI-3
aI-25
aI42
aI-61
aI62
aI42
aI68
aI-50
aI18
aI64
aI-43
aI-43
aI59
aI29
aI53
aI-15
aI27
aI-8
aI32
aI-36
aI11
aI-64
aI-32
aI-60
aI-60
aI-4
aI-65
aI-55
aI-49
aI-45
aI6
aI11
aa(lp93
I-37
aI-27
aI-48
aI-26
aI67
aI-30
aI6
aI-6
aI-40
aI-69
aI26
aI1
aI-18
aI-61
aI62
aI64
aI-26
aI-63
aI59
aI58
aI-41
aI-21
aI44
aI-61
aI-56
aI-44
aI-51
aI18
aI-24
aI-35
aI57
aI9
aI30
aI-7
aI-16
aI-16
aI-57
aI31
aI21
aI19
aI-25
aI-9
aI0
aI-57
aI28
aI24
aI63
aI-61
aI-52
aI27
aI4
aI32
aI51
aI-67
aI63
aI-43
aI57
aI-37
aI-2
aI-8
aI-43
aI-31
aI47
aI67
aI-10
aI41
aI37
aI38
aI-4
aI42
aa(lp94
I56
aI52
aI23
aI-19
aI-64
aI54
aI-13
aI-18
aI21
aI-28
aI-14
aI-19
aI-63
aI17
aI42
aI-66
aI-65
aI27
aI-49
aI50
aI-24
aI-24
aI50
aI-29
aI35
aI31
aI39
aI-65
aI-12
aI64
aI66
aI-51
aI3
aI54
aI-34
aI-66
aI57
aI52
aI38
aI-38
aI-22
aI15
aI3
aI-45
aI-50
aI34
aI-19
aI-20
aI-65
aI2
aI-62
aI60
aI6
aI22
aI51
aI37
aI1
aI2
aI-31
aI-28
aI6
aI-58
aI-41
aI-28
aI-10
aI21
aI25
aI62
aI-36
aI35
aa(lp95
I28
aI53
aI44
aI41
aI34
aI12
aI34
aI67
aI-64
aI50
aI-50
aI-24
aI5
aI-2
aI30
aI5
aI-63
aI58
aI8
aI53
aI-48
aI-16
aI22
aI-55
aI-1
aI-67
aI-16
aI-56
aI32
aI-17
aI24
aI-40
aI42
aI-69
aI66
aI-53
aI-51
aI24
aI52
aI-41
aI-33
aI-10
aI20
aI-56
aI-27
aI55
aI-41
aI45
aI17
aI-1
aI52
aI-35
aI57
aI39
aI-46
aI35
aI-26
aI8
aI7
aI15
aI-51
aI70
aI-6
aI-69
aI25
aI-43
aI42
aI-13
aI-41
aI55
aa(lp96
I-44
aI43
aI40
aI16
aI43
aI32
aI39
aI32
aI9
aI-30
aI-54
aI49
aI11
aI12
aI-57
aI8
aI3
aI-53
aI41
aI-23
aI57
aI-36
aI-9
aI-62
aI15
aI52
aI44
aI47
aI48
aI10
aI11
aI-8
aI-65
aI64
aI-63
aI-25
aI-29
aI-23
aI-28
aI-6
aI0
aI17
aI-35
aI32
aI-3
aI-28
aI27
aI26
aI-45
aI54
aI30
aI33
aI30
aI-27
aI69
aI0
aI22
aI52
aI-61
aI-20
aI24
aI49
aI-59
aI70
aI27
aI9
aI25
aI-26
aI-20
aI46
aa(lp97
I-20
aI51
aI59
aI45
aI-27
aI10
aI-24
aI-31
aI-10
aI-58
aI21
aI-40
aI49
aI53
aI47
aI-39
aI-25
aI58
aI-19
aI54
aI34
aI-23
aI54
aI58
aI43
aI-26
aI-36
aI13
aI37
aI47
aI-7
aI-22
aI-4
aI-55
aI-13
aI-5
aI-40
aI-19
aI-5
aI-31
aI68
aI-66
aI65
aI18
aI-31
aI20
aI25
aI17
aI37
aI28
aI56
aI-61
aI25
aI66
aI59
aI51
aI33
aI2
aI47
aI21
aI35
aI-43
aI-5
aI-70
aI30
aI16
aI41
aI19
aI-14
aI64
aa(lp98
I-59
aI5
aI9
aI29
aI38
aI29
aI-46
aI4
aI-33
aI21
aI43
aI-22
aI-51
aI13
aI-41
aI29
aI-45
aI-4
aI10
aI-9
aI-24
aI43
aI-32
aI-1
aI39
aI60
aI-3
aI-12
aI9
aI-34
aI-7
aI-10
aI-4
aI-4
aI-37
aI62
aI-38
aI2
aI15
aI62
aI56
aI-38
aI-45
aI-36
aI-21
aI15
aI-7
aI-40
aI20
aI-48
aI29
aI18
aI-26
aI-45
aI-7
aI39
aI17
aI-31
aI39
aI34
aI-27
aI31
aI28
aI46
aI39
aI7
aI-32
aI-45
aI29
aI-60
aa(lp99
I-19
aI14
aI23
aI-14
aI16
aI-25
aI-40
aI51
aI-10
aI-52
aI-70
aI55
aI-30
aI68
aI-1
aI-11
aI-65
aI67
aI-5
aI61
aI-54
aI-7
aI41
aI59
aI56
aI-59
aI-45
aI63
aI4
aI43
aI-5
aI64
aI-35
aI54
aI20
aI38
aI-36
aI31
aI-36
aI15
aI-13
aI-10
aI-6
aI-15
aI-23
aI-32
aI-9
aI37
aI27
aI-15
aI-32
aI31
aI-15
aI25
aI-48
aI-27
aI-18
aI9
aI32
aI-67
aI19
aI15
aI3
aI49
aI-34
aI29
aI38
aI31
aI20
aI-68
aa(lp100
I51
aI6
aI-31
aI24
aI-39
aI21
aI-27
aI-25
aI-52
aI-34
aI51
aI-17
aI18
aI-31
aI-24
aI15
aI27
aI-26
aI-23
aI-46
aI39
aI47
aI39
aI-43
aI-51
aI-32
aI6
aI3
aI-30
aI27
aI32
aI29
aI-47
aI-63
aI-42
aI-23
aI37
aI56
aI23
aI-3
aI14
aI52
aI6
aI-25
aI-12
aI-46
aI-43
aI70
aI-54
aI10
aI61
aI-3
aI48
aI2
aI4
aI-40
aI51
aI-28
aI70
aI20
aI-16
aI-14
aI-1
aI-54
aI-17
aI65
aI1
aI-7
aI-35
aI-11
aa.