(lp0
(lp1
I-51
aI-9
aI13
aI56
aI-28
aI16
aI25
aI80
aI-79
aI35
aI63
aI8
aI-52
aI-52
aI43
aI27
aI28
aI-68
aI60
aI-13
aI-73
aI-59
aI42
aI1
aI78
aI-7
aI-17
aI-48
aI12
aI39
aI60
aI-11
aI-62
aI2
aI44
aI37
aI28
aI-78
aI46
aI-62
aI-77
aI69
aI-26
aI-63
aI63
aI65
aI-59
aI21
aI-61
aI-23
aI46
aI-67
aI-77
aI3
aI-42
aI-68
aI-71
aI-41
aI74
aI73
aI-72
aI32
aI-64
aI53
aI70
aI74
aI33
aI-53
aI-42
aI-38
aI-62
aI8
aI35
aI-23
aI-67
aI-74
aI33
aI-39
aI16
aI63
aa(lp2
I-72
aI-67
aI59
aI18
aI-15
aI79
aI-51
aI9
aI-38
aI65
aI-42
aI-17
aI-64
aI-47
aI-47
aI-61
aI4
aI34
aI39
aI-22
aI-22
aI52
aI-35
aI-27
aI-62
aI-36
aI-68
aI-35
aI-60
aI-24
aI49
aI62
aI39
aI76
aI-46
aI-31
aI44
aI9
aI50
aI-57
aI-75
aI-75
aI-27
aI-58
aI-38
aI-60
aI39
aI-70
aI66
aI8
aI12
aI-61
aI-4
aI15
aI66
aI-21
aI-44
aI66
aI72
aI-12
aI57
aI25
aI47
aI78
aI-68
aI32
aI57
aI24
aI-26
aI27
aI-64
aI-40
aI60
aI-14
aI56
aI27
aI-3
aI-22
aI-31
aI63
aa(lp3
I15
aI-72
aI-52
aI-63
aI-37
aI44
aI49
aI44
aI20
aI64
aI-39
aI-21
aI60
aI-48
aI-17
aI39
aI1
aI-75
aI63
aI28
aI-47
aI-27
aI-56
aI-79
aI52
aI-79
aI28
aI-6
aI-56
aI18
aI77
aI-25
aI-52
aI68
aI75
aI-39
aI-79
aI-62
aI-42
aI-59
aI-30
aI-5
aI-3
aI-79
aI-40
aI54
aI-73
aI40
aI-31
aI61
aI-22
aI-75
aI67
aI-28
aI-76
aI20
aI-40
aI-66
aI53
aI-33
aI18
aI-44
aI-69
aI76
aI-75
aI7
aI-36
aI-63
aI-27
aI54
aI53
aI-43
aI19
aI-47
aI29
aI-59
aI48
aI18
aI60
aI-38
aa(lp4
I54
aI-70
aI-49
aI-69
aI44
aI40
aI15
aI-26
aI31
aI-41
aI-11
aI18
aI-29
aI-59
aI-77
aI-60
aI-1
aI-44
aI-7
aI40
aI-51
aI-80
aI44
aI-50
aI75
aI-8
aI0
aI21
aI72
aI66
aI-62
aI54
aI38
aI30
aI56
aI35
aI-56
aI11
aI43
aI-18
aI-48
aI-70
aI-47
aI-28
aI5
aI64
aI-63
aI-35
aI-32
aI-62
aI33
aI-43
aI-55
aI17
aI-35
aI-23
aI-80
aI26
aI-8
aI42
aI-75
aI8
aI-64
aI75
aI36
aI-17
aI-70
aI-28
aI46
aI-61
aI-24
aI-8
aI-58
aI-48
aI75
aI-49
aI-45
aI79
aI46
aI18
aa(lp5
I-5
aI-55
aI3
aI58
aI17
aI61
aI12
aI80
aI52
aI-23
aI-71
aI79
aI22
aI78
aI-47
aI-44
aI-46
aI58
aI56
aI14
aI79
aI63
aI-62
aI-43
aI77
aI24
aI5
aI25
aI56
aI70
aI-48
aI-72
aI2
aI14
aI-71
aI41
aI-8
aI-66
aI-42
aI-29
aI74
aI43
aI72
aI61
aI6
aI-27
aI-79
aI34
aI58
aI-64
aI59
aI69
aI65
aI-71
aI-73
aI-15
aI78
aI60
aI-72
aI-75
aI21
aI35
aI22
aI47
aI-79
aI3
aI-32
aI7
aI71
aI-16
aI78
aI-53
aI-64
aI48
aI-22
aI30
aI0
aI2
aI-60
aI46
aa(lp6
I-62
aI37
aI77
aI62
aI-58
aI-69
aI-3
aI-58
aI57
aI-5
aI-43
aI-48
aI34
aI0
aI-43
aI-19
aI-19
aI-13
aI24
aI-1
aI59
aI-73
aI45
aI-1
aI51
aI-37
aI-50
aI60
aI-80
aI-56
aI-62
aI59
aI-51
aI4
aI40
aI-80
aI14
aI-33
aI39
aI-43
aI68
aI47
aI73
aI5
aI-76
aI72
aI47
aI8
aI-15
aI42
aI12
aI29
aI68
aI-32
aI72
aI-43
aI0
aI38
aI73
aI44
aI-65
aI-78
aI26
aI28
aI53
aI-22
aI2
aI69
aI-24
aI-79
aI-27
aI-43
aI-80
aI79
aI39
aI48
aI80
aI-40
aI-22
aI-10
aa(lp7
I37
aI22
aI25
aI50
aI32
aI-64
aI-55
aI-25
aI-18
aI-35
aI-63
aI-28
aI25
aI1
aI38
aI10
aI33
aI14
aI62
aI26
aI-6
aI39
aI3
aI11
aI39
aI48
aI-51
aI56
aI-73
aI29
aI14
aI-16
aI14
aI-68
aI-11
aI-74
aI43
aI-8
aI76
aI-43
aI63
aI-50
aI71
aI4
aI56
aI8
aI14
aI78
aI-49
aI-18
aI-19
aI-7
aI-43
aI-5
aI-58
aI-56
aI-7
aI-76
aI-50
aI-63
aI-77
aI-31
aI-47
aI-2
aI35
aI-38
aI-6
aI-80
aI-48
aI-59
aI24
aI46
aI-69
aI16
aI14
aI57
aI67
aI19
aI57
aI-14
aa(lp8
I-59
aI-11
aI34
aI-11
aI79
aI-29
aI-72
aI-10
aI-61
aI25
aI41
aI-18
aI73
aI-41
aI-59
aI61
aI-61
aI-67
aI-40
aI54
aI78
aI12
aI70
aI-41
aI-10
aI16
aI-12
aI79
aI-68
aI-64
aI-10
aI-3
aI-50
aI-77
aI-23
aI-80
aI-38
aI63
aI-68
aI52
aI7
aI-20
aI7
aI26
aI-11
aI-24
aI-25
aI7
aI-22
aI37
aI51
aI-80
aI74
aI-62
aI38
aI43
aI71
aI-73
aI-12
aI-7
aI74
aI-64
aI67
aI-54
aI70
aI-63
aI55
aI66
aI78
aI51
aI-50
aI-60
aI-27
aI-62
aI-38
aI-58
aI39
aI61
aI10
aI9
aa(lp9
I63
aI-30
aI-40
aI21
aI-18
aI0
aI-48
aI54
aI23
aI-54
aI-18
aI12
aI5
aI74
aI75
aI38
aI-74
aI-45
aI20
aI25
aI-24
aI-33
aI28
aI44
aI-68
aI-22
aI-21
aI80
aI-41
aI-72
aI67
aI-75
aI-27
aI-2
aI41
aI50
aI-42
aI12
aI43
aI51
aI69
aI24
aI31
aI-27
aI23
aI17
aI77
aI-74
aI42
aI-47
aI66
aI-21
aI-70
aI61
aI-31
aI64
aI12
aI-67
aI-7
aI-74
aI74
aI-21
aI-50
aI-38
aI74
aI61
aI-4
aI-45
aI47
aI-25
aI-27
aI-41
aI47
aI54
aI0
aI70
aI52
aI30
aI-75
aI-32
aa(lp10
I-57
aI-41
aI63
aI-39
aI73
aI26
aI13
aI-26
aI-67
aI47
aI-58
aI15
aI-2
aI66
aI42
aI-44
aI-37
aI70
aI-14
aI-62
aI15
aI65
aI-30
aI-27
aI-78
aI56
aI-54
aI44
aI78
aI-5
aI-12
aI-51
aI-57
aI47
aI39
aI64
aI-28
aI72
aI17
aI3
aI-80
aI25
aI33
aI60
aI-11
aI-1
aI1
aI41
aI41
aI19
aI-70
aI30
aI-49
aI63
aI-68
aI-14
aI32
aI41
aI47
aI-23
aI-63
aI-6
aI75
aI44
aI-44
aI8
aI54
aI5
aI-57
aI-60
aI31
aI-67
aI74
aI-45
aI25
aI76
aI-24
aI-14
aI-68
aI-79
aa(lp11
I68
aI18
aI73
aI60
aI36
aI-48
aI-62
aI49
aI8
aI63
aI30
aI12
aI7
aI4
aI-44
aI37
aI-41
aI78
aI-75
aI-44
aI-66
aI34
aI63
aI-30
aI-42
aI4
aI-48
aI46
aI9
aI-22
aI-12
aI55
aI-30
aI-80
aI-39
aI27
aI42
aI45
aI-10
aI59
aI-58
aI-34
aI-33
aI15
aI-30
aI-70
aI-62
aI-76
aI-50
aI-63
aI-11
aI61
aI45
aI-51
aI-1
aI-21
aI-47
aI-21
aI-50
aI26
aI10
aI-15
aI63
aI-9
aI40
aI59
aI-11
aI-20
aI38
aI-65
aI-13
aI37
aI75
aI47
aI68
aI-11
aI-38
aI42
aI24
aI-13
aa(lp12
I-39
aI-72
aI16
aI58
aI7
aI-19
aI-68
aI47
aI26
aI78
aI-30
aI22
aI0
aI-48
aI53
aI71
aI-62
aI27
aI-38
aI69
aI0
aI38
aI74
aI73
aI30
aI-33
aI47
aI-55
aI31
aI55
aI-51
aI-60
aI66
aI-66
aI26
aI30
aI5
aI-79
aI61
aI1
aI24
aI75
aI21
aI-63
aI-27
aI-19
aI-59
aI-75
aI-34
aI-2
aI61
aI-56
aI-46
aI-9
aI-39
aI62
aI-24
aI50
aI-14
aI74
aI-3
aI-25
aI19
aI72
aI48
aI48
aI-35
aI45
aI-66
aI42
aI27
aI-52
aI-43
aI44
aI38
aI-60
aI16
aI-17
aI-28
aI-74
aa(lp13
I-22
aI-8
aI-12
aI26
aI38
aI22
aI4
aI-56
aI11
aI4
aI60
aI-76
aI63
aI-26
aI15
aI-6
aI16
aI-35
aI49
aI-42
aI-39
aI-77
aI-51
aI62
aI-64
aI-36
aI-43
aI75
aI24
aI34
aI6
aI-20
aI63
aI50
aI33
aI-9
aI-34
aI77
aI24
aI-53
aI-9
aI6
aI-11
aI-64
aI-68
aI-8
aI23
aI78
aI-18
aI27
aI22
aI-65
aI-77
aI47
aI-70
aI-67
aI-10
aI-26
aI73
aI32
aI68
aI60
aI-8
aI-8
aI6
aI7
aI-34
aI79
aI-75
aI-67
aI63
aI7
aI50
aI22
aI-63
aI-76
aI-72
aI67
aI62
aI53
aa(lp14
I55
aI-61
aI57
aI9
aI-71
aI-53
aI67
aI29
aI5
aI51
aI75
aI63
aI-19
aI42
aI-6
aI23
aI-59
aI-25
aI-78
aI-74
aI-12
aI55
aI46
aI-77
aI-77
aI-33
aI-18
aI-9
aI34
aI-31
aI7
aI15
aI50
aI66
aI76
aI-24
aI49
aI-22
aI21
aI57
aI-78
aI75
aI-8
aI-18
aI22
aI-23
aI0
aI-61
aI-37
aI-31
aI17
aI17
aI-8
aI-46
aI13
aI51
aI-68
aI62
aI-39
aI-70
aI-11
aI22
aI-29
aI-44
aI-10
aI-12
aI-20
aI-19
aI-22
aI-66
aI-75
aI77
aI-74
aI25
aI61
aI18
aI-16
aI3
aI-17
aI23
aa(lp15
I74
aI40
aI43
aI-22
aI48
aI-57
aI-2
aI-54
aI57
aI-9
aI-54
aI52
aI-54
aI12
aI-51
aI-18
aI62
aI8
aI25
aI-15
aI35
aI35
aI-40
aI34
aI47
aI56
aI78
aI37
aI51
aI64
aI-45
aI16
aI-47
aI-49
aI74
aI-39
aI-49
aI64
aI69
aI-6
aI64
aI26
aI-42
aI-4
aI-76
aI-46
aI57
aI16
aI-19
aI25
aI-13
aI-35
aI56
aI19
aI-46
aI35
aI-38
aI73
aI23
aI-45
aI51
aI-66
aI25
aI-70
aI67
aI-44
aI-6
aI-4
aI61
aI38
aI-66
aI64
aI16
aI31
aI70
aI55
aI80
aI59
aI-73
aI20
aa(lp16
I-34
aI-66
aI-15
aI71
aI50
aI-43
aI25
aI-39
aI57
aI-42
aI63
aI56
aI-59
aI64
aI33
aI69
aI-69
aI-73
aI76
aI73
aI30
aI42
aI-73
aI3
aI-11
aI9
aI56
aI-66
aI-32
aI12
aI74
aI67
aI52
aI11
aI71
aI-71
aI-8
aI-73
aI13
aI17
aI21
aI4
aI23
aI-16
aI-25
aI24
aI-53
aI-65
aI-33
aI-2
aI73
aI73
aI-24
aI54
aI34
aI36
aI32
aI-46
aI-34
aI-67
aI-4
aI-12
aI49
aI12
aI-18
aI8
aI32
aI32
aI68
aI-18
aI34
aI32
aI-50
aI48
aI61
aI-77
aI23
aI-19
aI-68
aI39
aa(lp17
I-4
aI46
aI-13
aI68
aI-10
aI1
aI69
aI-71
aI19
aI-42
aI-57
aI53
aI-3
aI53
aI6
aI23
aI-7
aI26
aI21
aI78
aI-2
aI48
aI-37
aI-67
aI75
aI32
aI23
aI-27
aI79
aI-4
aI78
aI-51
aI74
aI-55
aI9
aI-8
aI-48
aI-36
aI-47
aI73
aI23
aI-16
aI-31
aI6
aI-68
aI47
aI68
aI60
aI61
aI37
aI-4
aI-52
aI-72
aI20
aI4
aI-19
aI-72
aI-19
aI-53
aI47
aI24
aI-61
aI-8
aI-53
aI45
aI76
aI-40
aI36
aI-7
aI19
aI-60
aI16
aI-15
aI-78
aI32
aI39
aI0
aI13
aI-60
aI-37
aa(lp18
I74
aI-15
aI-29
aI47
aI58
aI11
aI-17
aI-77
aI-54
aI-75
aI-56
aI-64
aI-60
aI-1
aI-68
aI39
aI-44
aI69
aI62
aI4
aI-22
aI-44
aI65
aI80
aI28
aI-55
aI-25
aI51
aI47
aI39
aI4
aI46
aI56
aI27
aI-36
aI33
aI2
aI-63
aI-64
aI48
aI-36
aI-36
aI3
aI-2
aI64
aI5
aI30
aI-75
aI-57
aI-6
aI55
aI-45
aI1
aI44
aI48
aI73
aI-69
aI66
aI-36
aI-31
aI37
aI-61
aI-15
aI60
aI-50
aI-67
aI75
aI45
aI65
aI-38
aI-64
aI-78
aI-21
aI16
aI74
aI-58
aI-65
aI7
aI-19
aI-64
aa(lp19
I-17
aI-11
aI38
aI-69
aI66
aI0
aI-1
aI-79
aI-23
aI35
aI-41
aI43
aI72
aI-9
aI8
aI-21
aI56
aI-50
aI-16
aI70
aI-14
aI-55
aI4
aI48
aI46
aI33
aI64
aI76
aI72
aI-40
aI53
aI36
aI-20
aI-66
aI7
aI1
aI63
aI-30
aI-79
aI59
aI-57
aI-48
aI-48
aI1
aI-37
aI71
aI-56
aI77
aI-62
aI-72
aI-39
aI65
aI18
aI-10
aI-62
aI-70
aI-50
aI40
aI19
aI-17
aI79
aI49
aI33
aI53
aI-41
aI20
aI17
aI74
aI32
aI-33
aI-46
aI19
aI76
aI14
aI72
aI-59
aI-69
aI25
aI4
aI-4
aa(lp20
I-21
aI-49
aI62
aI-38
aI-46
aI59
aI37
aI51
aI63
aI-37
aI-58
aI-77
aI32
aI13
aI-40
aI-73
aI53
aI11
aI77
aI5
aI-29
aI-67
aI6
aI-48
aI-48
aI4
aI33
aI59
aI-52
aI-46
aI-12
aI28
aI-65
aI-80
aI-47
aI-65
aI-46
aI32
aI-42
aI-38
aI12
aI0
aI-38
aI-55
aI-19
aI0
aI-58
aI-64
aI-14
aI-22
aI-22
aI9
aI4
aI-69
aI80
aI-64
aI41
aI59
aI31
aI39
aI-70
aI-41
aI-45
aI-31
aI34
aI57
aI0
aI-69
aI41
aI35
aI-6
aI-4
aI67
aI-17
aI-51
aI-9
aI-47
aI11
aI-74
aI-59
aa(lp21
I8
aI78
aI-72
aI15
aI-46
aI68
aI6
aI-40
aI1
aI33
aI-27
aI76
aI-75
aI-67
aI46
aI50
aI0
aI-25
aI34
aI-22
aI-55
aI-68
aI63
aI-28
aI22
aI-40
aI-25
aI48
aI66
aI40
aI19
aI60
aI46
aI2
aI48
aI12
aI37
aI49
aI20
aI-29
aI-74
aI-43
aI-59
aI-36
aI10
aI-27
aI-65
aI-42
aI62
aI51
aI35
aI-59
aI-63
aI11
aI-9
aI-40
aI-77
aI-7
aI1
aI61
aI-7
aI-27
aI-16
aI37
aI47
aI-40
aI-1
aI-68
aI-21
aI-79
aI62
aI64
aI30
aI75
aI72
aI-15
aI47
aI73
aI60
aI-42
aa(lp22
I-15
aI-2
aI10
aI-73
aI12
aI-41
aI-29
aI17
aI-65
aI-16
aI23
aI-5
aI24
aI-66
aI-23
aI34
aI-76
aI22
aI-13
aI73
aI-42
aI43
aI33
aI-64
aI62
aI44
aI-58
aI68
aI35
aI68
aI-23
aI6
aI-69
aI68
aI42
aI8
aI48
aI-7
aI62
aI11
aI28
aI-41
aI22
aI-29
aI30
aI50
aI-4
aI-47
aI75
aI-20
aI-41
aI66
aI67
aI-20
aI-60
aI-59
aI-55
aI27
aI-10
aI60
aI37
aI60
aI35
aI-72
aI-30
aI44
aI75
aI68
aI-72
aI-78
aI-4
aI25
aI24
aI41
aI73
aI51
aI78
aI-67
aI74
aI-12
aa(lp23
I65
aI12
aI57
aI-60
aI-51
aI40
aI66
aI11
aI-61
aI39
aI79
aI-28
aI66
aI19
aI28
aI-68
aI-26
aI-40
aI4
aI-24
aI0
aI27
aI41
aI9
aI-2
aI-30
aI-57
aI78
aI-48
aI49
aI14
aI21
aI-23
aI30
aI-67
aI79
aI46
aI-22
aI-73
aI-57
aI73
aI-43
aI-17
aI56
aI-12
aI79
aI41
aI-61
aI-80
aI25
aI7
aI63
aI-14
aI-29
aI65
aI23
aI28
aI63
aI-57
aI-51
aI-74
aI-47
aI-77
aI43
aI-52
aI68
aI-39
aI-42
aI10
aI54
aI-46
aI-58
aI-15
aI30
aI-18
aI-9
aI11
aI-70
aI-13
aI-1
aa(lp24
I4
aI-31
aI13
aI68
aI79
aI23
aI75
aI59
aI-63
aI-78
aI56
aI32
aI-68
aI20
aI54
aI-30
aI-25
aI-2
aI5
aI43
aI-42
aI-5
aI-33
aI49
aI-76
aI26
aI-24
aI-21
aI-64
aI-52
aI57
aI-39
aI-7
aI31
aI7
aI-73
aI17
aI22
aI23
aI-66
aI-33
aI-37
aI-29
aI41
aI-60
aI-40
aI49
aI-28
aI-73
aI45
aI59
aI-69
aI31
aI21
aI-34
aI-31
aI-69
aI-70
aI-24
aI-6
aI-19
aI-32
aI63
aI-76
aI23
aI48
aI-55
aI77
aI42
aI64
aI5
aI75
aI-10
aI-32
aI-72
aI-20
aI34
aI-4
aI1
aI-60
aa(lp25
I-19
aI-65
aI-26
aI-40
aI49
aI-45
aI77
aI-68
aI45
aI27
aI-23
aI-80
aI-63
aI-79
aI-27
aI39
aI29
aI49
aI59
aI61
aI-44
aI-7
aI37
aI-39
aI49
aI69
aI66
aI72
aI-18
aI-1
aI-79
aI-63
aI43
aI-11
aI-19
aI-18
aI-21
aI76
aI62
aI40
aI63
aI-77
aI18
aI-14
aI-76
aI38
aI49
aI-13
aI57
aI-7
aI-33
aI-4
aI17
aI58
aI-59
aI16
aI35
aI15
aI-6
aI-22
aI-3
aI34
aI11
aI50
aI-54
aI-79
aI64
aI76
aI2
aI-8
aI-55
aI-14
aI-14
aI-8
aI-79
aI80
aI-47
aI-78
aI-35
aI-7
aa(lp26
I-80
aI14
aI-35
aI-33
aI-19
aI-63
aI-48
aI-54
aI-29
aI-19
aI6
aI-23
aI-53
aI-64
aI-50
aI9
aI-37
aI-17
aI-76
aI-40
aI-50
aI37
aI49
aI-14
aI66
aI-65
aI47
aI-48
aI-10
aI-51
aI-60
aI-34
aI-19
aI-6
aI72
aI67
aI10
aI-39
aI64
aI-12
aI33
aI-71
aI-27
aI-60
aI65
aI18
aI-59
aI9
aI71
aI-55
aI3
aI-79
aI-42
aI-79
aI39
aI-22
aI-61
aI74
aI7
aI13
aI-14
aI74
aI65
aI-54
aI66
aI37
aI-43
aI49
aI75
aI64
aI60
aI23
aI56
aI-72
aI-21
aI4
aI-3
aI-75
aI-72
aI-13
aa(lp27
I7
aI-7
aI-58
aI-27
aI52
aI-47
aI-56
aI46
aI64
aI-11
aI33
aI72
aI-9
aI41
aI-1
aI58
aI-59
aI-71
aI0
aI67
aI70
aI5
aI12
aI23
aI42
aI64
aI-38
aI61
aI-49
aI79
aI-3
aI-72
aI16
aI60
aI-68
aI-74
aI74
aI79
aI-26
aI-7
aI26
aI73
aI-74
aI21
aI-24
aI-44
aI47
aI38
aI53
aI51
aI-6
aI-36
aI3
aI5
aI-3
aI48
aI-73
aI-77
aI25
aI-27
aI17
aI1
aI14
aI66
aI30
aI17
aI78
aI-45
aI11
aI60
aI76
aI14
aI42
aI75
aI48
aI74
aI-31
aI50
aI7
aI57
aa(lp28
I78
aI-38
aI62
aI-22
aI-52
aI-54
aI17
aI32
aI48
aI42
aI-66
aI12
aI-47
aI-62
aI61
aI-11
aI-56
aI-13
aI67
aI-42
aI-35
aI67
aI-64
aI-79
aI9
aI49
aI27
aI-7
aI0
aI6
aI72
aI-18
aI38
aI-67
aI46
aI-35
aI32
aI-69
aI77
aI29
aI64
aI46
aI63
aI-54
aI-80
aI-30
aI73
aI25
aI-72
aI3
aI-27
aI-6
aI7
aI20
aI52
aI6
aI29
aI-36
aI10
aI-14
aI71
aI6
aI-29
aI54
aI50
aI11
aI-44
aI-53
aI78
aI-56
aI6
aI79
aI-74
aI10
aI-62
aI-35
aI-65
aI-55
aI-45
aI21
aa(lp29
I-50
aI46
aI27
aI-3
aI-70
aI56
aI53
aI31
aI-71
aI15
aI21
aI62
aI-79
aI-1
aI75
aI-26
aI-78
aI-50
aI69
aI49
aI-26
aI-8
aI27
aI-80
aI53
aI-16
aI-61
aI35
aI-58
aI-31
aI6
aI22
aI41
aI-36
aI18
aI-63
aI32
aI-64
aI-60
aI-36
aI-50
aI59
aI-64
aI54
aI-41
aI6
aI35
aI-8
aI-61
aI-78
aI-65
aI-33
aI34
aI-1
aI-66
aI7
aI58
aI55
aI-56
aI14
aI-21
aI-44
aI-25
aI-28
aI-15
aI13
aI80
aI3
aI13
aI2
aI-72
aI43
aI-54
aI-67
aI-77
aI-67
aI51
aI77
aI75
aI40
aa(lp30
I-45
aI50
aI-76
aI24
aI-60
aI-69
aI38
aI63
aI-28
aI-73
aI62
aI7
aI-40
aI-46
aI24
aI75
aI-16
aI-18
aI-32
aI65
aI-61
aI-62
aI57
aI24
aI-26
aI43
aI-63
aI-62
aI26
aI1
aI-23
aI2
aI53
aI41
aI53
aI-14
aI73
aI-66
aI58
aI-31
aI-78
aI13
aI-4
aI31
aI-2
aI-59
aI-78
aI15
aI17
aI-17
aI19
aI-54
aI-39
aI-15
aI60
aI47
aI64
aI31
aI40
aI27
aI-25
aI-63
aI75
aI-4
aI-38
aI-30
aI18
aI-74
aI63
aI-24
aI33
aI-46
aI19
aI-45
aI63
aI-65
aI-53
aI-76
aI-48
aI-47
aa(lp31
I5
aI2
aI-18
aI69
aI59
aI-45
aI-57
aI56
aI-48
aI-32
aI51
aI-70
aI55
aI11
aI-66
aI-53
aI22
aI71
aI24
aI62
aI-61
aI-5
aI15
aI-59
aI-59
aI-16
aI40
aI-43
aI-32
aI73
aI78
aI-13
aI-74
aI-37
aI-33
aI27
aI56
aI-78
aI-24
aI60
aI-73
aI40
aI37
aI19
aI-10
aI-80
aI-18
aI75
aI-78
aI-1
aI26
aI45
aI-22
aI32
aI-72
aI-37
aI-44
aI72
aI-62
aI-1
aI-39
aI-63
aI12
aI62
aI47
aI-4
aI12
aI-67
aI-80
aI0
aI51
aI-62
aI43
aI-77
aI-26
aI-11
aI-13
aI-22
aI-71
aI76
aa(lp32
I-63
aI-61
aI49
aI73
aI-11
aI-26
aI-42
aI0
aI-28
aI-71
aI-38
aI-8
aI30
aI-36
aI-4
aI60
aI-7
aI-37
aI-76
aI26
aI-10
aI39
aI72
aI53
aI19
aI-7
aI78
aI-42
aI36
aI-20
aI-6
aI-8
aI-64
aI36
aI-44
aI-52
aI1
aI-70
aI37
aI72
aI11
aI-33
aI-13
aI3
aI-74
aI-28
aI-48
aI-72
aI11
aI79
aI28
aI4
aI-51
aI-67
aI-12
aI-43
aI77
aI-3
aI52
aI-15
aI-14
aI-57
aI56
aI57
aI60
aI-43
aI-49
aI-38
aI75
aI55
aI-34
aI66
aI80
aI-35
aI56
aI-23
aI60
aI77
aI1
aI75
aa(lp33
I-54
aI29
aI78
aI-4
aI55
aI43
aI40
aI-44
aI-22
aI-9
aI-9
aI56
aI54
aI55
aI55
aI-58
aI66
aI-20
aI14
aI-17
aI-74
aI-41
aI-27
aI-57
aI-69
aI-43
aI74
aI-18
aI-60
aI-37
aI30
aI75
aI-77
aI24
aI-76
aI78
aI-32
aI-63
aI37
aI-24
aI71
aI-2
aI-20
aI15
aI47
aI-15
aI-37
aI-54
aI14
aI-44
aI-28
aI70
aI-31
aI-43
aI-20
aI57
aI55
aI-70
aI-26
aI-22
aI19
aI-16
aI-67
aI-41
aI-18
aI-68
aI-13
aI35
aI34
aI-12
aI31
aI55
aI-30
aI-76
aI11
aI-66
aI-13
aI-76
aI-25
aI25
aa(lp34
I-59
aI26
aI78
aI69
aI50
aI7
aI30
aI46
aI11
aI53
aI-69
aI8
aI-5
aI-2
aI-79
aI-26
aI-79
aI7
aI-75
aI24
aI-29
aI-23
aI51
aI59
aI27
aI-12
aI74
aI22
aI20
aI-73
aI70
aI-76
aI-37
aI53
aI-53
aI53
aI-55
aI55
aI38
aI8
aI-56
aI48
aI9
aI57
aI-8
aI-52
aI62
aI-51
aI-37
aI57
aI28
aI31
aI72
aI58
aI-34
aI55
aI71
aI-11
aI-46
aI37
aI-30
aI47
aI78
aI-16
aI-45
aI-2
aI-68
aI-67
aI-34
aI18
aI27
aI-69
aI-37
aI-76
aI72
aI16
aI-11
aI2
aI71
aI20
aa(lp35
I20
aI-38
aI12
aI28
aI-57
aI59
aI-26
aI57
aI-27
aI76
aI71
aI-22
aI60
aI69
aI79
aI-30
aI-65
aI-71
aI23
aI41
aI75
aI-62
aI51
aI-16
aI-33
aI-65
aI-73
aI-28
aI-23
aI50
aI-60
aI-46
aI30
aI-69
aI6
aI61
aI0
aI-65
aI14
aI-20
aI-58
aI0
aI-77
aI62
aI-60
aI-78
aI79
aI0
aI0
aI-59
aI33
aI-49
aI73
aI72
aI13
aI59
aI-34
aI71
aI-52
aI-29
aI35
aI-24
aI-60
aI34
aI66
aI18
aI26
aI71
aI14
aI-38
aI52
aI28
aI-70
aI-29
aI64
aI18
aI-4
aI16
aI1
aI39
aa(lp36
I60
aI-19
aI-80
aI-35
aI-39
aI-45
aI35
aI1
aI-23
aI69
aI60
aI27
aI-2
aI76
aI73
aI7
aI-31
aI-49
aI-60
aI-14
aI-41
aI29
aI-2
aI-19
aI-54
aI-20
aI31
aI75
aI80
aI11
aI29
aI28
aI-59
aI-22
aI-37
aI-49
aI-30
aI-11
aI-13
aI-78
aI-14
aI-11
aI72
aI17
aI-8
aI20
aI-31
aI-74
aI31
aI14
aI-16
aI-39
aI-72
aI64
aI-20
aI-18
aI-32
aI5
aI-75
aI-73
aI-39
aI10
aI71
aI-21
aI57
aI-8
aI58
aI-69
aI-51
aI42
aI-2
aI29
aI42
aI-65
aI78
aI-63
aI62
aI-25
aI-59
aI42
aa(lp37
I14
aI69
aI55
aI-32
aI-28
aI-40
aI-47
aI5
aI3
aI-45
aI-18
aI-71
aI57
aI55
aI39
aI-80
aI46
aI23
aI-15
aI30
aI65
aI-42
aI45
aI-7
aI71
aI-28
aI-28
aI-65
aI4
aI-80
aI18
aI-22
aI65
aI40
aI47
aI-19
aI64
aI12
aI-38
aI43
aI-26
aI-46
aI37
aI31
aI24
aI22
aI-59
aI75
aI-58
aI-12
aI-77
aI72
aI14
aI50
aI19
aI6
aI20
aI-15
aI6
aI62
aI-45
aI-31
aI52
aI-65
aI49
aI-22
aI60
aI39
aI1
aI2
aI30
aI18
aI-34
aI48
aI-57
aI24
aI37
aI55
aI-11
aI-11
aa(lp38
I-21
aI-40
aI-44
aI60
aI50
aI-51
aI-54
aI18
aI14
aI-53
aI-16
aI7
aI63
aI29
aI1
aI-33
aI25
aI64
aI24
aI-60
aI-52
aI71
aI-25
aI-23
aI-43
aI-73
aI10
aI-49
aI23
aI23
aI-32
aI-12
aI36
aI-42
aI27
aI38
aI76
aI-46
aI-1
aI50
aI28
aI-38
aI-65
aI-62
aI-6
aI-56
aI27
aI-33
aI-12
aI-25
aI7
aI40
aI-28
aI68
aI70
aI38
aI-49
aI65
aI74
aI65
aI-48
aI-55
aI-59
aI37
aI-15
aI-70
aI4
aI-42
aI-8
aI-80
aI68
aI-48
aI-45
aI80
aI12
aI-66
aI-55
aI-43
aI-14
aI59
aa(lp39
I42
aI42
aI-12
aI47
aI70
aI-75
aI-66
aI21
aI-64
aI27
aI-1
aI-74
aI-6
aI60
aI-9
aI31
aI-57
aI-77
aI18
aI-26
aI-68
aI-74
aI-24
aI49
aI-3
aI44
aI8
aI63
aI54
aI-2
aI-29
aI-1
aI36
aI-35
aI8
aI-77
aI-57
aI-74
aI-39
aI-59
aI-68
aI-32
aI-62
aI-42
aI-78
aI-17
aI37
aI73
aI38
aI23
aI-75
aI5
aI-18
aI45
aI-27
aI-29
aI17
aI1
aI-30
aI48
aI-33
aI-14
aI13
aI46
aI27
aI3
aI-42
aI66
aI48
aI57
aI-25
aI-73
aI53
aI-64
aI-76
aI-24
aI-52
aI56
aI-40
aI-47
aa(lp40
I-60
aI54
aI8
aI-79
aI-52
aI12
aI33
aI72
aI-56
aI-42
aI41
aI-41
aI76
aI-32
aI-74
aI0
aI14
aI45
aI71
aI-54
aI70
aI76
aI70
aI-66
aI-40
aI-4
aI-37
aI-36
aI53
aI52
aI-31
aI-6
aI44
aI37
aI-78
aI12
aI-32
aI-55
aI-21
aI-5
aI37
aI48
aI65
aI23
aI33
aI40
aI-53
aI-80
aI-44
aI10
aI14
aI-33
aI-38
aI52
aI12
aI8
aI2
aI-41
aI3
aI-18
aI2
aI-4
aI28
aI-59
aI11
aI-31
aI17
aI-71
aI73
aI-75
aI-79
aI66
aI-46
aI-5
aI3
aI37
aI34
aI57
aI-64
aI-35
aa(lp41
I-50
aI68
aI-77
aI75
aI-64
aI-36
aI74
aI-57
aI76
aI46
aI28
aI76
aI-15
aI46
aI46
aI-47
aI-51
aI67
aI78
aI-78
aI-6
aI64
aI-6
aI37
aI49
aI61
aI78
aI-52
aI-67
aI-80
aI77
aI42
aI57
aI-43
aI50
aI-9
aI58
aI56
aI54
aI-63
aI-38
aI2
aI-61
aI16
aI21
aI19
aI-6
aI-6
aI58
aI-4
aI43
aI-56
aI71
aI-16
aI6
aI59
aI-61
aI-41
aI-44
aI-69
aI33
aI-13
aI-67
aI80
aI-28
aI22
aI-49
aI-43
aI22
aI-24
aI-20
aI-80
aI-71
aI58
aI-46
aI-53
aI18
aI-66
aI30
aI-60
aa(lp42
I-27
aI75
aI66
aI-73
aI49
aI32
aI-48
aI13
aI74
aI28
aI-79
aI44
aI-15
aI1
aI62
aI31
aI-48
aI61
aI-67
aI-14
aI-35
aI-37
aI-74
aI-25
aI45
aI5
aI4
aI42
aI11
aI79
aI27
aI20
aI-33
aI29
aI45
aI9
aI31
aI-75
aI22
aI-14
aI-60
aI54
aI-31
aI-41
aI-39
aI80
aI-14
aI-49
aI2
aI21
aI-11
aI-68
aI4
aI-31
aI-12
aI-4
aI-8
aI-45
aI63
aI28
aI-64
aI-58
aI-12
aI71
aI9
aI-4
aI9
aI-16
aI-2
aI25
aI80
aI5
aI10
aI65
aI27
aI-31
aI7
aI-12
aI-35
aI-13
aa(lp43
I-25
aI-78
aI-13
aI-80
aI8
aI-42
aI-27
aI25
aI51
aI-42
aI40
aI33
aI-16
aI-40
aI45
aI32
aI-45
aI30
aI49
aI11
aI66
aI41
aI71
aI49
aI19
aI44
aI-56
aI-43
aI-67
aI-2
aI-48
aI5
aI-61
aI46
aI-61
aI0
aI34
aI-58
aI31
aI66
aI-77
aI-6
aI-54
aI55
aI-75
aI-34
aI37
aI42
aI-57
aI78
aI29
aI-34
aI5
aI27
aI42
aI33
aI-26
aI27
aI-28
aI-36
aI-72
aI68
aI-16
aI49
aI16
aI-42
aI-47
aI59
aI31
aI80
aI-32
aI-51
aI-78
aI48
aI-79
aI44
aI-31
aI0
aI-3
aI38
aa(lp44
I-25
aI8
aI-55
aI-12
aI69
aI-14
aI-49
aI-27
aI-11
aI-79
aI44
aI-35
aI-76
aI-62
aI60
aI54
aI-3
aI62
aI-2
aI-37
aI30
aI43
aI-15
aI-44
aI-11
aI64
aI60
aI-43
aI-65
aI-63
aI43
aI28
aI-23
aI-36
aI33
aI63
aI-20
aI-63
aI-49
aI-37
aI14
aI-26
aI-76
aI49
aI50
aI-77
aI61
aI54
aI-4
aI-39
aI57
aI29
aI46
aI-36
aI11
aI65
aI23
aI-74
aI-62
aI63
aI73
aI36
aI-51
aI-59
aI1
aI-37
aI-50
aI-8
aI-73
aI10
aI76
aI-62
aI-43
aI74
aI-32
aI-69
aI-54
aI-26
aI29
aI5
aa(lp45
I-80
aI2
aI34
aI-40
aI-49
aI3
aI-25
aI-78
aI-62
aI28
aI57
aI16
aI0
aI58
aI-48
aI-67
aI-59
aI40
aI35
aI26
aI-79
aI27
aI-36
aI-44
aI12
aI43
aI64
aI-6
aI57
aI-9
aI-13
aI78
aI71
aI16
aI-60
aI-57
aI-53
aI80
aI-62
aI75
aI-71
aI34
aI64
aI-57
aI47
aI-43
aI4
aI44
aI-9
aI50
aI-29
aI75
aI-62
aI68
aI-65
aI3
aI70
aI51
aI23
aI22
aI-48
aI-48
aI3
aI32
aI-41
aI44
aI-29
aI34
aI-48
aI66
aI15
aI-6
aI73
aI57
aI-53
aI-10
aI-18
aI-71
aI75
aI45
aa(lp46
I-75
aI-43
aI-69
aI35
aI42
aI43
aI-45
aI-45
aI-70
aI72
aI-41
aI37
aI57
aI-58
aI-8
aI62
aI57
aI54
aI79
aI12
aI-54
aI57
aI-57
aI13
aI76
aI-14
aI-50
aI-15
aI-23
aI-2
aI-76
aI-72
aI-60
aI-54
aI64
aI-49
aI-13
aI-1
aI34
aI-74
aI-21
aI56
aI20
aI52
aI1
aI78
aI77
aI56
aI15
aI28
aI39
aI24
aI74
aI0
aI21
aI-79
aI-3
aI77
aI-44
aI-77
aI-33
aI-34
aI8
aI60
aI-50
aI9
aI72
aI42
aI-75
aI52
aI80
aI38
aI-8
aI-21
aI-74
aI-14
aI-59
aI-19
aI-24
aI-41
aa(lp47
I-54
aI-45
aI64
aI-41
aI-35
aI0
aI-9
aI-18
aI-55
aI-79
aI-76
aI-30
aI-24
aI-36
aI44
aI49
aI55
aI-20
aI28
aI2
aI7
aI-60
aI72
aI-79
aI-27
aI61
aI58
aI15
aI24
aI43
aI-60
aI14
aI-39
aI27
aI60
aI-19
aI23
aI71
aI39
aI-25
aI-41
aI68
aI30
aI-74
aI65
aI18
aI-48
aI28
aI-45
aI72
aI4
aI48
aI66
aI44
aI52
aI-77
aI62
aI-45
aI18
aI-6
aI51
aI-49
aI-28
aI-24
aI-60
aI-10
aI-58
aI-65
aI4
aI65
aI-29
aI-5
aI51
aI-51
aI-43
aI-39
aI-17
aI-26
aI-33
aI-38
aa(lp48
I74
aI68
aI62
aI-73
aI-7
aI27
aI-21
aI43
aI-42
aI-66
aI-64
aI-48
aI-71
aI17
aI53
aI-52
aI-3
aI-78
aI40
aI63
aI-80
aI66
aI46
aI-18
aI2
aI62
aI-78
aI23
aI-11
aI72
aI47
aI77
aI20
aI16
aI35
aI60
aI-58
aI6
aI31
aI-73
aI6
aI-69
aI43
aI55
aI45
aI2
aI-24
aI-10
aI-17
aI-28
aI43
aI15
aI-32
aI-63
aI-37
aI-22
aI-13
aI-7
aI-58
aI55
aI44
aI-33
aI51
aI-38
aI-15
aI32
aI52
aI60
aI-21
aI-61
aI-65
aI-73
aI-79
aI64
aI-31
aI-58
aI57
aI33
aI1
aI-24
aa(lp49
I1
aI15
aI41
aI48
aI52
aI-62
aI-8
aI-32
aI-24
aI38
aI-35
aI-74
aI36
aI-30
aI-46
aI70
aI-78
aI0
aI-33
aI-69
aI45
aI-32
aI65
aI-22
aI47
aI75
aI-13
aI50
aI-69
aI-34
aI12
aI-20
aI-57
aI1
aI-21
aI63
aI28
aI-46
aI44
aI64
aI59
aI-56
aI-68
aI8
aI-14
aI-62
aI-8
aI-37
aI-48
aI-54
aI43
aI-12
aI-15
aI-34
aI-65
aI44
aI-6
aI75
aI-66
aI34
aI75
aI-73
aI76
aI23
aI-1
aI-56
aI-67
aI19
aI56
aI-19
aI42
aI59
aI31
aI48
aI62
aI77
aI-58
aI-10
aI-16
aI-13
aa(lp50
I-57
aI35
aI-8
aI-14
aI50
aI7
aI48
aI-23
aI-55
aI76
aI-69
aI-27
aI12
aI-36
aI-52
aI72
aI-14
aI66
aI-41
aI3
aI-50
aI-32
aI32
aI56
aI-53
aI17
aI-48
aI43
aI-33
aI37
aI-60
aI34
aI4
aI11
aI-27
aI62
aI-34
aI47
aI-65
aI-60
aI-2
aI-53
aI-46
aI-58
aI0
aI11
aI-13
aI4
aI-65
aI41
aI53
aI7
aI-25
aI-39
aI-36
aI5
aI29
aI71
aI24
aI22
aI13
aI42
aI39
aI-75
aI79
aI17
aI40
aI-53
aI10
aI77
aI-46
aI-43
aI-35
aI78
aI43
aI-69
aI-9
aI25
aI-17
aI72
aa(lp51
I55
aI-52
aI46
aI-7
aI-4
aI-39
aI8
aI24
aI-27
aI28
aI-41
aI66
aI79
aI47
aI-8
aI49
aI-12
aI-77
aI41
aI10
aI38
aI-36
aI-27
aI-63
aI69
aI-18
aI-5
aI-69
aI-39
aI-22
aI-65
aI52
aI-27
aI10
aI-25
aI-2
aI3
aI-18
aI7
aI57
aI70
aI12
aI71
aI-37
aI-44
aI32
aI-34
aI57
aI-3
aI-37
aI73
aI-32
aI-21
aI7
aI-69
aI-53
aI70
aI-55
aI-34
aI67
aI35
aI20
aI-42
aI41
aI-31
aI-63
aI-31
aI-35
aI-12
aI-76
aI48
aI-78
aI-9
aI56
aI-33
aI11
aI-51
aI79
aI80
aI72
aa(lp52
I-46
aI62
aI-57
aI-64
aI-47
aI-11
aI47
aI29
aI79
aI53
aI-45
aI70
aI-48
aI56
aI46
aI-13
aI-14
aI-76
aI16
aI28
aI3
aI-49
aI4
aI24
aI-56
aI-22
aI-34
aI-52
aI18
aI-77
aI28
aI-4
aI-59
aI-47
aI-74
aI-40
aI41
aI-28
aI31
aI-46
aI41
aI34
aI55
aI24
aI-8
aI-7
aI9
aI60
aI66
aI-26
aI50
aI-5
aI40
aI6
aI8
aI-50
aI57
aI-29
aI13
aI-74
aI-51
aI-74
aI-79
aI-59
aI-58
aI-77
aI-57
aI-35
aI-61
aI-45
aI3
aI-7
aI-12
aI-14
aI-18
aI-39
aI33
aI-61
aI49
aI-12
aa(lp53
I44
aI-2
aI67
aI-28
aI62
aI68
aI-32
aI23
aI-67
aI25
aI20
aI57
aI9
aI-1
aI-19
aI11
aI12
aI43
aI31
aI8
aI41
aI-11
aI41
aI-69
aI34
aI67
aI51
aI-59
aI77
aI-49
aI-18
aI45
aI-43
aI76
aI-34
aI23
aI-74
aI39
aI51
aI-72
aI-62
aI42
aI7
aI-71
aI16
aI-64
aI-1
aI44
aI-54
aI34
aI44
aI-21
aI62
aI59
aI-42
aI34
aI56
aI-29
aI50
aI-18
aI-61
aI16
aI-67
aI-6
aI72
aI44
aI-23
aI16
aI-46
aI-2
aI-68
aI-45
aI-80
aI34
aI-80
aI-19
aI59
aI62
aI2
aI-49
aa(lp54
I-4
aI35
aI-77
aI-14
aI-3
aI-43
aI80
aI-37
aI-76
aI9
aI15
aI-64
aI53
aI25
aI17
aI6
aI52
aI-60
aI-8
aI-45
aI-42
aI74
aI51
aI48
aI71
aI22
aI-41
aI72
aI-12
aI24
aI-46
aI74
aI-15
aI68
aI-77
aI68
aI-11
aI-49
aI-69
aI-65
aI22
aI37
aI-21
aI24
aI27
aI52
aI-28
aI39
aI35
aI-44
aI-30
aI16
aI-10
aI51
aI2
aI37
aI-65
aI1
aI3
aI78
aI65
aI16
aI23
aI47
aI74
aI-55
aI-2
aI68
aI54
aI62
aI31
aI78
aI-62
aI-47
aI50
aI-32
aI79
aI73
aI80
aI-2
aa(lp55
I78
aI-43
aI-2
aI-30
aI-36
aI-67
aI-55
aI-50
aI3
aI74
aI-14
aI70
aI-67
aI45
aI67
aI-69
aI-22
aI-34
aI-79
aI-28
aI8
aI-79
aI18
aI-14
aI52
aI-39
aI25
aI46
aI50
aI41
aI60
aI-40
aI-62
aI-35
aI-31
aI67
aI10
aI74
aI-62
aI31
aI7
aI-60
aI55
aI5
aI53
aI-31
aI-57
aI39
aI53
aI23
aI-20
aI-64
aI28
aI-65
aI-38
aI-53
aI-52
aI21
aI14
aI66
aI12
aI-28
aI3
aI26
aI12
aI-73
aI11
aI-5
aI-25
aI-7
aI-66
aI71
aI-31
aI64
aI-23
aI2
aI-80
aI-29
aI-64
aI49
aa(lp56
I-27
aI56
aI-12
aI-69
aI59
aI20
aI2
aI-55
aI15
aI-66
aI12
aI5
aI-7
aI66
aI-47
aI63
aI-45
aI-62
aI-12
aI14
aI-13
aI-14
aI33
aI28
aI-32
aI11
aI39
aI72
aI80
aI-10
aI-36
aI-26
aI14
aI44
aI17
aI34
aI-32
aI-47
aI-77
aI58
aI12
aI59
aI-45
aI-6
aI79
aI-80
aI-11
aI54
aI-62
aI57
aI-56
aI72
aI11
aI-63
aI-37
aI-24
aI-64
aI-64
aI-73
aI46
aI12
aI-16
aI22
aI54
aI15
aI-15
aI0
aI72
aI-60
aI-31
aI-68
aI79
aI-62
aI-60
aI-26
aI-50
aI23
aI24
aI-13
aI22
aa(lp57
I37
aI30
aI-53
aI33
aI-58
aI50
aI-10
aI54
aI53
aI-53
aI-9
aI20
aI-21
aI-67
aI-8
aI-1
aI-11
aI72
aI-57
aI-61
aI34
aI8
aI-13
aI-5
aI-23
aI-8
aI53
aI-59
aI58
aI43
aI1
aI74
aI-53
aI-77
aI-60
aI-70
aI42
aI-34
aI-36
aI-58
aI-60
aI30
aI-76
aI-30
aI-2
aI-34
aI64
aI46
aI53
aI-56
aI-74
aI-28
aI-14
aI1
aI-12
aI-13
aI32
aI-64
aI2
aI23
aI37
aI79
aI-68
aI76
aI36
aI-51
aI-68
aI-20
aI63
aI-72
aI-46
aI-20
aI-23
aI-10
aI77
aI56
aI-57
aI-72
aI29
aI42
aa(lp58
I-21
aI-77
aI36
aI-76
aI13
aI10
aI14
aI39
aI67
aI25
aI59
aI72
aI-24
aI35
aI-67
aI-22
aI-47
aI-8
aI-47
aI29
aI19
aI-28
aI58
aI-15
aI57
aI3
aI-78
aI-16
aI-67
aI-16
aI-14
aI63
aI66
aI-12
aI-4
aI11
aI-68
aI63
aI15
aI-57
aI54
aI47
aI12
aI-40
aI-36
aI-68
aI-34
aI-39
aI-63
aI-44
aI1
aI-50
aI-51
aI65
aI72
aI80
aI45
aI43
aI46
aI68
aI-65
aI62
aI11
aI-27
aI-23
aI62
aI-9
aI5
aI6
aI-12
aI-43
aI7
aI15
aI-41
aI73
aI56
aI12
aI-33
aI52
aI-62
aa(lp59
I5
aI49
aI32
aI68
aI61
aI-48
aI66
aI-24
aI-64
aI24
aI47
aI-33
aI-72
aI22
aI15
aI-69
aI-64
aI-74
aI-64
aI72
aI52
aI-43
aI-57
aI39
aI19
aI6
aI40
aI-56
aI79
aI44
aI78
aI69
aI-1
aI78
aI15
aI-41
aI14
aI-70
aI-52
aI-24
aI17
aI-74
aI34
aI20
aI35
aI21
aI-23
aI-15
aI-46
aI-4
aI11
aI5
aI27
aI-45
aI-54
aI-35
aI0
aI-50
aI-2
aI-60
aI-8
aI-50
aI24
aI-10
aI57
aI2
aI38
aI59
aI54
aI38
aI75
aI-4
aI-9
aI54
aI-59
aI70
aI41
aI65
aI0
aI79
aa(lp60
I-5
aI21
aI53
aI-40
aI61
aI-3
aI-50
aI39
aI-49
aI33
aI10
aI12
aI-59
aI-52
aI60
aI29
aI-5
aI55
aI-27
aI-19
aI72
aI-51
aI-73
aI41
aI-65
aI13
aI-54
aI62
aI-80
aI62
aI24
aI13
aI6
aI-47
aI35
aI63
aI-76
aI-16
aI-18
aI59
aI-4
aI-79
aI-44
aI13
aI69
aI-77
aI-44
aI10
aI-32
aI-20
aI-18
aI24
aI-76
aI48
aI-14
aI26
aI-26
aI-48
aI-10
aI-36
aI31
aI60
aI80
aI72
aI-30
aI-11
aI60
aI-60
aI-34
aI-20
aI-16
aI19
aI73
aI42
aI60
aI-60
aI25
aI-76
aI61
aI-70
aa(lp61
I-37
aI-28
aI65
aI-44
aI-37
aI8
aI-51
aI27
aI37
aI-65
aI72
aI-4
aI63
aI-77
aI69
aI-57
aI65
aI-29
aI65
aI-46
aI-37
aI-50
aI-30
aI9
aI24
aI-27
aI9
aI11
aI68
aI23
aI62
aI21
aI-74
aI-66
aI-32
aI79
aI22
aI65
aI43
aI13
aI80
aI15
aI32
aI-78
aI21
aI59
aI-56
aI69
aI-1
aI78
aI-15
aI-53
aI-37
aI-24
aI54
aI-68
aI-14
aI15
aI12
aI-39
aI56
aI15
aI-57
aI6
aI-49
aI-13
aI-39
aI-47
aI28
aI20
aI34
aI45
aI45
aI22
aI-7
aI-47
aI29
aI68
aI-35
aI63
aa(lp62
I77
aI45
aI57
aI-14
aI42
aI-13
aI-22
aI-13
aI-35
aI51
aI-19
aI-58
aI-56
aI-46
aI-68
aI-22
aI-4
aI-39
aI47
aI-30
aI-58
aI16
aI-10
aI44
aI-32
aI79
aI-74
aI72
aI23
aI66
aI-32
aI-39
aI-56
aI-30
aI15
aI49
aI11
aI-57
aI33
aI34
aI-15
aI72
aI63
aI44
aI-45
aI-63
aI-80
aI-4
aI-18
aI-14
aI-40
aI17
aI-80
aI-51
aI-30
aI-22
aI3
aI-14
aI-61
aI43
aI8
aI-72
aI-70
aI-57
aI-30
aI37
aI6
aI20
aI24
aI-12
aI75
aI-1
aI-71
aI44
aI24
aI-70
aI-40
aI-44
aI-61
aI-56
aa(lp63
I13
aI34
aI-9
aI17
aI52
aI-8
aI49
aI44
aI60
aI-66
aI-41
aI71
aI16
aI48
aI33
aI68
aI-32
aI-30
aI-42
aI24
aI-7
aI10
aI58
aI75
aI-60
aI-29
aI11
aI77
aI3
aI-4
aI4
aI-15
aI50
aI77
aI4
aI-37
aI-73
aI58
aI-46
aI46
aI-15
aI-19
aI27
aI-73
aI7
aI-54
aI-51
aI69
aI1
aI-32
aI-79
aI-58
aI-15
aI-4
aI-65
aI61
aI-68
aI-7
aI31
aI-30
aI-33
aI34
aI-51
aI10
aI3
aI33
aI-75
aI49
aI-66
aI46
aI68
aI-40
aI72
aI23
aI43
aI-19
aI17
aI-5
aI-78
aI-50
aa(lp64
I77
aI73
aI5
aI15
aI-40
aI17
aI17
aI12
aI-69
aI-78
aI-7
aI78
aI-57
aI-31
aI-3
aI78
aI-19
aI-10
aI-21
aI-41
aI-49
aI79
aI73
aI-25
aI11
aI0
aI20
aI-41
aI-37
aI30
aI71
aI64
aI-57
aI-23
aI42
aI-73
aI21
aI-9
aI54
aI-80
aI-18
aI3
aI56
aI51
aI4
aI26
aI-33
aI0
aI40
aI-22
aI-40
aI20
aI-12
aI-49
aI-78
aI-53
aI-39
aI9
aI34
aI38
aI-19
aI-31
aI77
aI63
aI18
aI-55
aI36
aI-70
aI36
aI-27
aI-64
aI-15
aI75
aI-34
aI-28
aI41
aI-22
aI42
aI-72
aI-8
aa(lp65
I-7
aI11
aI-6
aI-62
aI-36
aI-67
aI56
aI-53
aI16
aI-41
aI19
aI6
aI21
aI-71
aI41
aI-36
aI-67
aI50
aI36
aI68
aI-52
aI-63
aI12
aI43
aI59
aI-37
aI-59
aI28
aI39
aI47
aI49
aI74
aI-62
aI45
aI6
aI-30
aI26
aI56
aI2
aI9
aI-12
aI-60
aI61
aI-3
aI-75
aI56
aI-61
aI-44
aI-4
aI66
aI-62
aI28
aI-72
aI6
aI-24
aI41
aI31
aI-5
aI26
aI19
aI77
aI58
aI77
aI-33
aI-36
aI-8
aI-61
aI-51
aI-60
aI-36
aI-48
aI-68
aI22
aI60
aI-52
aI18
aI-8
aI29
aI-77
aI-80
aa(lp66
I-41
aI-4
aI-43
aI-60
aI72
aI1
aI70
aI66
aI-41
aI-17
aI-73
aI-16
aI48
aI-57
aI-46
aI-48
aI35
aI-66
aI19
aI35
aI-76
aI32
aI71
aI70
aI-60
aI-13
aI-74
aI48
aI3
aI-50
aI36
aI69
aI28
aI26
aI-12
aI-4
aI-58
aI-45
aI2
aI-51
aI-46
aI34
aI-14
aI24
aI-33
aI-79
aI79
aI28
aI-73
aI-22
aI29
aI-7
aI-72
aI-68
aI26
aI-75
aI62
aI-56
aI36
aI22
aI10
aI-9
aI-61
aI-67
aI21
aI62
aI11
aI27
aI11
aI69
aI33
aI-56
aI-25
aI-55
aI-66
aI3
aI-25
aI16
aI65
aI-58
aa(lp67
I39
aI-25
aI-21
aI-49
aI76
aI39
aI-46
aI37
aI24
aI-37
aI33
aI-18
aI62
aI77
aI-32
aI19
aI-14
aI-6
aI77
aI-61
aI-7
aI80
aI-47
aI-77
aI-25
aI64
aI15
aI-6
aI-77
aI3
aI-22
aI-43
aI-63
aI2
aI-14
aI-69
aI-14
aI32
aI-73
aI50
aI-1
aI77
aI-27
aI40
aI-1
aI-77
aI-23
aI-80
aI40
aI-24
aI66
aI7
aI18
aI-11
aI-42
aI61
aI25
aI-34
aI9
aI-6
aI68
aI31
aI47
aI66
aI-26
aI-77
aI-14
aI55
aI20
aI57
aI-45
aI67
aI72
aI-36
aI-33
aI38
aI58
aI0
aI-56
aI-70
aa(lp68
I79
aI-57
aI1
aI68
aI26
aI-33
aI14
aI-10
aI27
aI7
aI2
aI53
aI-78
aI10
aI-41
aI25
aI-72
aI16
aI50
aI-11
aI58
aI59
aI25
aI-23
aI48
aI78
aI46
aI33
aI-69
aI-62
aI63
aI-31
aI26
aI-52
aI-43
aI4
aI-28
aI-9
aI67
aI-71
aI55
aI20
aI59
aI-7
aI-27
aI-15
aI79
aI71
aI39
aI45
aI22
aI-18
aI-32
aI30
aI40
aI-59
aI38
aI-15
aI76
aI54
aI-46
aI-59
aI-16
aI54
aI-44
aI-5
aI-47
aI14
aI52
aI-59
aI69
aI-15
aI-63
aI38
aI-26
aI-10
aI50
aI-60
aI20
aI76
aa(lp69
I-23
aI-6
aI28
aI73
aI-60
aI-48
aI43
aI38
aI78
aI80
aI30
aI8
aI20
aI8
aI5
aI22
aI-1
aI46
aI-58
aI-54
aI-30
aI7
aI25
aI13
aI-33
aI-38
aI5
aI-19
aI-64
aI24
aI-30
aI-38
aI-16
aI32
aI5
aI48
aI-35
aI28
aI-19
aI-71
aI-58
aI-76
aI58
aI68
aI-26
aI-74
aI-73
aI25
aI-8
aI-57
aI-20
aI-7
aI-67
aI12
aI-23
aI-32
aI25
aI56
aI-62
aI5
aI-20
aI-45
aI39
aI-14
aI14
aI-54
aI-63
aI-74
aI0
aI3
aI4
aI38
aI43
aI-30
aI57
aI-67
aI50
aI-49
aI-67
aI-65
aa(lp70
I-9
aI42
aI-67
aI-65
aI-34
aI34
aI13
aI20
aI-80
aI-56
aI-30
aI30
aI75
aI-45
aI17
aI-34
aI-60
aI15
aI-56
aI3
aI40
aI70
aI14
aI41
aI-19
aI-7
aI-72
aI-4
aI-23
aI29
aI3
aI-41
aI-41
aI-55
aI23
aI-56
aI58
aI65
aI70
aI-47
aI-58
aI-22
aI-49
aI-25
aI33
aI-64
aI65
aI-32
aI47
aI-30
aI-31
aI-41
aI28
aI-64
aI11
aI-62
aI59
aI38
aI-63
aI20
aI16
aI-24
aI78
aI-15
aI12
aI3
aI79
aI-46
aI38
aI-35
aI22
aI50
aI47
aI-43
aI-77
aI49
aI-71
aI55
aI-31
aI47
aa(lp71
I-47
aI25
aI-64
aI-7
aI-53
aI78
aI-50
aI-79
aI-42
aI74
aI-75
aI4
aI53
aI-45
aI-57
aI-37
aI2
aI-20
aI16
aI-32
aI-79
aI-19
aI76
aI-51
aI-67
aI-12
aI-13
aI41
aI-37
aI32
aI62
aI57
aI-64
aI13
aI12
aI58
aI-76
aI19
aI-10
aI51
aI65
aI18
aI-5
aI-43
aI-53
aI56
aI-21
aI-70
aI72
aI42
aI48
aI-35
aI-76
aI5
aI-7
aI-23
aI-46
aI37
aI-24
aI27
aI21
aI26
aI31
aI-34
aI12
aI-50
aI4
aI-74
aI37
aI61
aI39
aI-73
aI20
aI18
aI-75
aI-46
aI-69
aI-17
aI75
aI-31
aa(lp72
I-8
aI-75
aI-53
aI-34
aI11
aI72
aI4
aI-70
aI18
aI15
aI2
aI-53
aI51
aI68
aI12
aI5
aI-46
aI-78
aI59
aI7
aI14
aI72
aI78
aI-34
aI30
aI50
aI34
aI-80
aI-49
aI64
aI26
aI34
aI47
aI8
aI-74
aI56
aI-16
aI-55
aI8
aI38
aI-59
aI-68
aI-66
aI-1
aI72
aI77
aI-32
aI-71
aI-20
aI-56
aI-12
aI-59
aI50
aI53
aI59
aI63
aI-80
aI57
aI56
aI-8
aI-78
aI74
aI-59
aI-12
aI78
aI79
aI-16
aI-74
aI77
aI67
aI6
aI-15
aI-61
aI70
aI14
aI2
aI48
aI4
aI-26
aI-59
aa(lp73
I-59
aI68
aI-66
aI75
aI-14
aI46
aI-33
aI-29
aI60
aI-39
aI66
aI-71
aI-16
aI80
aI54
aI43
aI-25
aI53
aI69
aI-6
aI-13
aI-3
aI42
aI11
aI68
aI28
aI20
aI-57
aI73
aI-9
aI-20
aI49
aI-31
aI-67
aI33
aI77
aI34
aI-61
aI-33
aI-30
aI-11
aI-78
aI70
aI33
aI-41
aI51
aI-62
aI-13
aI27
aI-4
aI-33
aI-40
aI20
aI-44
aI-73
aI-11
aI-73
aI10
aI46
aI-54
aI24
aI-18
aI45
aI31
aI-12
aI5
aI71
aI-58
aI-16
aI78
aI-46
aI-11
aI73
aI-32
aI75
aI-40
aI-57
aI-48
aI4
aI-25
aa(lp74
I-18
aI77
aI15
aI-74
aI-76
aI-11
aI16
aI-1
aI-72
aI-57
aI23
aI-42
aI45
aI-14
aI24
aI-41
aI8
aI-48
aI-12
aI-58
aI61
aI-37
aI-49
aI-24
aI28
aI23
aI45
aI-50
aI-15
aI-64
aI-64
aI15
aI65
aI-47
aI73
aI4
aI27
aI-72
aI-8
aI39
aI7
aI19
aI35
aI74
aI71
aI-9
aI65
aI-6
aI62
aI56
aI-13
aI52
aI23
aI10
aI-24
aI56
aI20
aI-39
aI7
aI18
aI55
aI72
aI9
aI-72
aI-68
aI59
aI-2
aI-29
aI-68
aI-78
aI39
aI56
aI-50
aI-59
aI-15
aI45
aI43
aI-80
aI33
aI65
aa(lp75
I-59
aI17
aI-51
aI-66
aI63
aI-78
aI-1
aI-29
aI65
aI48
aI51
aI-12
aI-61
aI-25
aI46
aI21
aI-70
aI48
aI-4
aI5
aI-55
aI-63
aI-38
aI-56
aI-75
aI-55
aI-55
aI46
aI3
aI53
aI-58
aI-71
aI63
aI7
aI-78
aI-69
aI-76
aI-55
aI-47
aI67
aI21
aI-40
aI36
aI57
aI-26
aI18
aI-67
aI-50
aI61
aI-28
aI-64
aI-55
aI-17
aI-24
aI59
aI9
aI32
aI59
aI-66
aI25
aI35
aI-47
aI-74
aI-41
aI52
aI20
aI-21
aI11
aI41
aI-41
aI-31
aI65
aI78
aI-11
aI-8
aI-68
aI17
aI63
aI56
aI-53
aa(lp76
I-5
aI-46
aI-25
aI-69
aI-43
aI-38
aI-12
aI71
aI79
aI-52
aI-49
aI42
aI6
aI19
aI77
aI62
aI-3
aI17
aI70
aI29
aI-72
aI-10
aI-69
aI-80
aI-13
aI-74
aI75
aI-64
aI-75
aI-45
aI53
aI1
aI23
aI-26
aI33
aI52
aI51
aI5
aI51
aI53
aI67
aI77
aI-11
aI13
aI61
aI-23
aI-68
aI-19
aI50
aI49
aI67
aI22
aI32
aI-5
aI73
aI8
aI-75
aI68
aI-59
aI-11
aI42
aI-16
aI-77
aI3
aI-74
aI46
aI0
aI-40
aI-44
aI75
aI-72
aI69
aI-60
aI-75
aI-3
aI-59
aI9
aI40
aI-18
aI57
aa(lp77
I75
aI30
aI46
aI-32
aI20
aI67
aI79
aI7
aI3
aI-63
aI-24
aI41
aI20
aI-23
aI-2
aI-28
aI-80
aI-68
aI-26
aI35
aI-14
aI-50
aI25
aI-6
aI76
aI27
aI78
aI-53
aI-46
aI6
aI11
aI-71
aI-17
aI6
aI40
aI15
aI13
aI-26
aI-29
aI7
aI-2
aI-37
aI-77
aI-75
aI43
aI-57
aI10
aI9
aI-67
aI11
aI-67
aI20
aI12
aI12
aI32
aI63
aI-16
aI-41
aI1
aI-21
aI-16
aI34
aI12
aI-43
aI48
aI0
aI-40
aI23
aI26
aI-68
aI20
aI72
aI-25
aI12
aI11
aI15
aI-63
aI-59
aI-78
aI-43
aa(lp78
I45
aI80
aI-52
aI20
aI-26
aI8
aI14
aI46
aI-62
aI79
aI-44
aI44
aI42
aI66
aI42
aI70
aI41
aI45
aI56
aI-24
aI36
aI19
aI14
aI48
aI-75
aI-42
aI-31
aI47
aI65
aI-44
aI-8
aI34
aI7
aI58
aI63
aI-61
aI45
aI-69
aI11
aI74
aI-37
aI-48
aI3
aI47
aI-4
aI66
aI-34
aI-61
aI10
aI75
aI15
aI-40
aI-32
aI-67
aI52
aI26
aI52
aI74
aI-60
aI-14
aI-37
aI-28
aI53
aI26
aI-10
aI47
aI73
aI-9
aI-72
aI-24
aI-40
aI6
aI-28
aI-55
aI-69
aI-57
aI-40
aI50
aI-39
aI-14
aa(lp79
I78
aI68
aI7
aI60
aI-9
aI51
aI-8
aI80
aI-2
aI-52
aI-8
aI71
aI-13
aI70
aI13
aI49
aI66
aI-10
aI50
aI-24
aI74
aI60
aI-28
aI-8
aI-39
aI17
aI-73
aI-58
aI-44
aI-27
aI-10
aI-52
aI3
aI51
aI-70
aI0
aI-36
aI38
aI72
aI36
aI-18
aI74
aI41
aI8
aI40
aI16
aI-63
aI10
aI46
aI-4
aI-20
aI14
aI29
aI50
aI-77
aI-34
aI61
aI76
aI12
aI12
aI-80
aI-68
aI64
aI-23
aI-45
aI62
aI-80
aI43
aI5
aI-72
aI-76
aI-23
aI80
aI0
aI-10
aI-48
aI75
aI73
aI5
aI-59
aa(lp80
I9
aI78
aI58
aI-23
aI-39
aI71
aI-66
aI-51
aI56
aI21
aI-5
aI47
aI-76
aI30
aI-20
aI-50
aI56
aI-29
aI-71
aI-54
aI-15
aI-26
aI25
aI5
aI4
aI40
aI-42
aI-21
aI-1
aI43
aI-46
aI41
aI13
aI-63
aI-23
aI72
aI50
aI-56
aI-31
aI9
aI-25
aI55
aI62
aI-22
aI-53
aI34
aI-47
aI60
aI5
aI23
aI35
aI58
aI78
aI71
aI7
aI38
aI33
aI-79
aI6
aI-9
aI6
aI-34
aI65
aI-56
aI67
aI36
aI-56
aI46
aI41
aI11
aI51
aI9
aI-51
aI79
aI-53
aI32
aI-59
aI52
aI-6
aI-52
aa(lp81
I1
aI-31
aI59
aI-69
aI74
aI-36
aI-11
aI23
aI-74
aI-46
aI73
aI-27
aI-8
aI-79
aI21
aI-72
aI31
aI-6
aI-4
aI30
aI53
aI79
aI-58
aI72
aI-41
aI32
aI32
aI65
aI66
aI16
aI-75
aI-1
aI29
aI36
aI38
aI-3
aI-6
aI-31
aI20
aI44
aI-34
aI30
aI-52
aI-59
aI46
aI26
aI-38
aI-44
aI35
aI33
aI-69
aI78
aI55
aI-55
aI25
aI-65
aI-25
aI37
aI-12
aI62
aI49
aI75
aI0
aI-56
aI-1
aI-66
aI27
aI1
aI-50
aI2
aI-62
aI66
aI20
aI-40
aI-55
aI48
aI-64
aI-27
aI78
aI52
aa(lp82
I-48
aI-49
aI27
aI-76
aI49
aI-48
aI-51
aI34
aI4
aI-39
aI26
aI-32
aI-57
aI52
aI-59
aI24
aI-61
aI-19
aI-20
aI66
aI-3
aI-43
aI-11
aI-64
aI-65
aI-79
aI13
aI-61
aI0
aI50
aI8
aI-76
aI-44
aI72
aI46
aI66
aI6
aI36
aI-9
aI-60
aI-20
aI-55
aI52
aI21
aI15
aI4
aI-74
aI38
aI-36
aI-3
aI-2
aI45
aI-9
aI-18
aI25
aI-37
aI4
aI75
aI-78
aI71
aI2
aI-80
aI-14
aI9
aI7
aI66
aI35
aI66
aI21
aI-29
aI75
aI79
aI73
aI66
aI69
aI39
aI-41
aI17
aI-34
aI-18
aa(lp83
I-49
aI-74
aI72
aI72
aI-13
aI41
aI-10
aI64
aI73
aI-33
aI80
aI24
aI33
aI13
aI-53
aI-55
aI-64
aI50
aI76
aI-50
aI64
aI-20
aI26
aI-30
aI-75
aI55
aI-74
aI29
aI-13
aI-1
aI-79
aI75
aI-53
aI-49
aI45
aI-19
aI-32
aI-23
aI-29
aI-55
aI25
aI-76
aI19
aI33
aI1
aI-16
aI53
aI73
aI-79
aI-36
aI-16
aI55
aI-39
aI78
aI43
aI64
aI-56
aI1
aI-44
aI2
aI13
aI62
aI9
aI-63
aI-39
aI44
aI-46
aI1
aI37
aI-34
aI54
aI-48
aI-26
aI-59
aI-32
aI-27
aI-66
aI6
aI57
aI-4
aa(lp84
I-77
aI73
aI-17
aI15
aI40
aI19
aI-36
aI-52
aI-79
aI-12
aI73
aI2
aI-75
aI18
aI-65
aI37
aI48
aI49
aI-60
aI40
aI61
aI-63
aI-58
aI26
aI77
aI-17
aI6
aI-2
aI-52
aI62
aI-36
aI31
aI-42
aI-67
aI-77
aI37
aI-45
aI74
aI78
aI-30
aI1
aI-19
aI-48
aI79
aI48
aI-37
aI21
aI63
aI-14
aI-33
aI-57
aI-42
aI-55
aI71
aI73
aI-6
aI-66
aI-3
aI-77
aI-24
aI-6
aI62
aI29
aI19
aI-28
aI-46
aI-37
aI35
aI-40
aI-2
aI-49
aI-49
aI47
aI-42
aI71
aI60
aI-69
aI-57
aI-49
aI54
aa(lp85
I-67
aI-12
aI4
aI56
aI71
aI-13
aI-9
aI-67
aI71
aI16
aI60
aI32
aI-16
aI-29
aI1
aI24
aI10
aI-4
aI52
aI79
aI-42
aI-61
aI14
aI32
aI-12
aI-57
aI-22
aI4
aI-48
aI56
aI-65
aI52
aI-4
aI60
aI-50
aI75
aI-39
aI10
aI-77
aI52
aI-50
aI59
aI-3
aI44
aI-33
aI52
aI-31
aI8
aI70
aI-45
aI1
aI-28
aI-6
aI-8
aI66
aI29
aI-44
aI-53
aI25
aI74
aI-63
aI-14
aI-46
aI44
aI-14
aI-7
aI4
aI6
aI57
aI61
aI-63
aI-76
aI-79
aI43
aI-4
aI77
aI-55
aI-62
aI-45
aI-6
aa(lp86
I-38
aI-79
aI14
aI25
aI-16
aI-36
aI-60
aI50
aI-9
aI-10
aI21
aI46
aI-3
aI-20
aI51
aI34
aI56
aI53
aI54
aI-10
aI-46
aI-36
aI31
aI43
aI-54
aI-66
aI2
aI77
aI-10
aI43
aI-56
aI3
aI8
aI-27
aI-47
aI-66
aI-15
aI65
aI47
aI3
aI58
aI41
aI5
aI-7
aI3
aI-65
aI27
aI70
aI-18
aI69
aI48
aI-78
aI27
aI21
aI5
aI-52
aI15
aI7
aI-30
aI9
aI72
aI-8
aI-58
aI-54
aI26
aI9
aI66
aI51
aI17
aI79
aI-54
aI28
aI-45
aI-71
aI-5
aI39
aI23
aI51
aI-56
aI-34
aa(lp87
I27
aI36
aI-37
aI0
aI-57
aI-32
aI47
aI78
aI-72
aI32
aI-58
aI-44
aI-45
aI57
aI23
aI16
aI32
aI-11
aI59
aI4
aI37
aI-23
aI40
aI57
aI-19
aI41
aI-22
aI22
aI1
aI-27
aI66
aI-42
aI18
aI34
aI-66
aI-9
aI14
aI21
aI56
aI33
aI-32
aI-44
aI-72
aI74
aI-30
aI-16
aI-75
aI47
aI66
aI-21
aI30
aI75
aI18
aI30
aI61
aI-30
aI-68
aI7
aI34
aI73
aI67
aI44
aI-8
aI-63
aI48
aI-30
aI-50
aI-50
aI65
aI-28
aI62
aI-37
aI-50
aI-59
aI49
aI52
aI30
aI32
aI67
aI-11
aa(lp88
I-9
aI-56
aI38
aI-10
aI58
aI27
aI26
aI-70
aI-70
aI-46
aI15
aI-70
aI-62
aI-59
aI-65
aI-50
aI-79
aI58
aI59
aI-18
aI-13
aI-13
aI38
aI-1
aI15
aI35
aI-28
aI10
aI18
aI53
aI-72
aI-48
aI-25
aI-56
aI8
aI-5
aI24
aI65
aI4
aI2
aI71
aI-72
aI63
aI-26
aI67
aI-30
aI-38
aI-14
aI5
aI56
aI-59
aI-37
aI66
aI77
aI79
aI74
aI23
aI-2
aI-43
aI-53
aI54
aI-37
aI-61
aI39
aI40
aI-5
aI4
aI-55
aI-74
aI-46
aI-45
aI74
aI47
aI-31
aI-77
aI-13
aI25
aI-31
aI-55
aI11
aa(lp89
I-39
aI-14
aI-30
aI-64
aI-76
aI46
aI-66
aI41
aI7
aI50
aI50
aI-3
aI49
aI-67
aI-15
aI-51
aI52
aI72
aI-70
aI-46
aI-29
aI-1
aI17
aI-79
aI67
aI2
aI61
aI18
aI-56
aI-57
aI30
aI64
aI-20
aI62
aI-11
aI-59
aI11
aI-11
aI22
aI-22
aI73
aI-26
aI54
aI-74
aI-55
aI-14
aI10
aI-5
aI38
aI-53
aI-76
aI-5
aI56
aI-31
aI75
aI-55
aI28
aI-16
aI-50
aI-29
aI19
aI-64
aI-21
aI-65
aI-67
aI13
aI9
aI-44
aI-59
aI42
aI22
aI-66
aI-39
aI66
aI-39
aI-61
aI-9
aI21
aI68
aI66
aa(lp90
I16
aI-62
aI67
aI-17
aI6
aI-63
aI-67
aI-23
aI76
aI-6
aI23
aI75
aI-70
aI53
aI69
aI-71
aI43
aI25
aI-52
aI40
aI-43
aI80
aI56
aI1
aI-57
aI10
aI62
aI28
aI-20
aI-1
aI14
aI23
aI11
aI-15
aI-80
aI0
aI35
aI33
aI1
aI-44
aI-62
aI38
aI29
aI-10
aI-43
aI-36
aI45
aI-53
aI53
aI73
aI66
aI9
aI31
aI-77
aI-75
aI-63
aI-27
aI-59
aI62
aI-74
aI39
aI51
aI-20
aI45
aI51
aI-40
aI-59
aI43
aI79
aI-76
aI9
aI-18
aI53
aI-21
aI-79
aI-19
aI-28
aI-30
aI48
aI-34
aa(lp91
I-47
aI26
aI44
aI-66
aI-74
aI18
aI20
aI-33
aI55
aI30
aI20
aI61
aI-10
aI15
aI-17
aI-36
aI20
aI58
aI-75
aI54
aI-27
aI-62
aI-34
aI-19
aI-52
aI-7
aI57
aI-30
aI51
aI-78
aI0
aI56
aI-29
aI-72
aI-38
aI-10
aI64
aI51
aI14
aI14
aI15
aI-53
aI-10
aI13
aI-56
aI-3
aI-22
aI70
aI19
aI-3
aI36
aI-70
aI24
aI76
aI-19
aI-53
aI-56
aI51
aI0
aI-29
aI17
aI2
aI20
aI16
aI-17
aI25
aI24
aI6
aI22
aI58
aI-21
aI22
aI-53
aI-23
aI3
aI-64
aI-29
aI61
aI-68
aI-8
aa(lp92
I69
aI58
aI26
aI41
aI29
aI-30
aI71
aI63
aI37
aI56
aI29
aI78
aI-54
aI-64
aI6
aI35
aI45
aI-44
aI25
aI-30
aI22
aI28
aI62
aI-23
aI-7
aI44
aI49
aI-60
aI-80
aI52
aI-39
aI-68
aI-28
aI32
aI-46
aI-54
aI74
aI-28
aI71
aI7
aI64
aI-15
aI-58
aI-58
aI80
aI-67
aI-37
aI-26
aI27
aI-17
aI71
aI34
aI-9
aI26
aI-23
aI-67
aI-63
aI58
aI9
aI-18
aI38
aI-41
aI48
aI1
aI-58
aI-80
aI-1
aI35
aI77
aI26
aI-35
aI53
aI37
aI73
aI22
aI-37
aI43
aI-10
aI29
aI-14
aa(lp93
I-10
aI6
aI-5
aI24
aI35
aI-7
aI74
aI17
aI51
aI-57
aI-73
aI-37
aI29
aI-71
aI44
aI61
aI-62
aI35
aI72
aI56
aI61
aI14
aI50
aI63
aI-6
aI-31
aI-2
aI-5
aI-55
aI21
aI-37
aI31
aI-66
aI23
aI-55
aI3
aI75
aI-23
aI-55
aI65
aI27
aI-55
aI-8
aI7
aI-35
aI20
aI-5
aI58
aI-16
aI-43
aI-48
aI72
aI-22
aI-62
aI21
aI72
aI-64
aI63
aI-3
aI-53
aI13
aI-30
aI13
aI17
aI70
aI-54
aI-72
aI-33
aI47
aI78
aI12
aI24
aI27
aI-62
aI-56
aI-38
aI28
aI-1
aI29
aI-62
aa(lp94
I64
aI24
aI-44
aI5
aI50
aI1
aI48
aI58
aI-24
aI-38
aI-57
aI-58
aI-11
aI-58
aI52
aI-6
aI45
aI-41
aI-71
aI37
aI-52
aI80
aI-34
aI0
aI27
aI-19
aI57
aI1
aI47
aI38
aI-68
aI40
aI67
aI46
aI-15
aI14
aI-31
aI31
aI-39
aI-38
aI-69
aI30
aI55
aI-35
aI-17
aI-75
aI37
aI68
aI-68
aI22
aI43
aI-41
aI-51
aI8
aI68
aI50
aI49
aI7
aI40
aI-29
aI18
aI-42
aI10
aI7
aI64
aI52
aI-12
aI48
aI-52
aI-63
aI-6
aI-72
aI-58
aI-40
aI57
aI-8
aI25
aI-55
aI60
aI-70
aa(lp95
I42
aI-50
aI-2
aI67
aI-31
aI-19
aI72
aI-23
aI-73
aI-14
aI21
aI66
aI79
aI65
aI-32
aI-76
aI-48
aI-73
aI-61
aI64
aI28
aI41
aI22
aI43
aI49
aI-12
aI28
aI-78
aI46
aI-32
aI-61
aI29
aI-11
aI3
aI-22
aI-11
aI-30
aI63
aI16
aI-19
aI16
aI14
aI27
aI-17
aI59
aI-30
aI-35
aI-78
aI-53
aI59
aI37
aI76
aI61
aI-75
aI75
aI53
aI-14
aI-79
aI48
aI53
aI63
aI-69
aI72
aI18
aI-10
aI-69
aI27
aI53
aI31
aI67
aI15
aI2
aI77
aI54
aI29
aI67
aI-68
aI69
aI12
aI-56
aa(lp96
I-69
aI32
aI60
aI-59
aI-72
aI18
aI-75
aI-54
aI70
aI17
aI31
aI-28
aI-20
aI-38
aI4
aI56
aI14
aI18
aI68
aI-27
aI20
aI59
aI-80
aI-58
aI-17
aI-52
aI-7
aI66
aI-53
aI-60
aI-62
aI-14
aI47
aI3
aI80
aI63
aI-69
aI-10
aI-9
aI-54
aI-2
aI39
aI59
aI74
aI-77
aI31
aI59
aI-26
aI9
aI-42
aI21
aI65
aI-22
aI11
aI-80
aI46
aI-6
aI29
aI78
aI5
aI-52
aI-42
aI8
aI-43
aI0
aI-31
aI6
aI28
aI-69
aI49
aI-13
aI46
aI28
aI18
aI11
aI26
aI77
aI68
aI-12
aI52
aa(lp97
I60
aI31
aI22
aI-8
aI18
aI14
aI18
aI64
aI20
aI-53
aI43
aI28
aI0
aI-75
aI28
aI-70
aI-30
aI44
aI-75
aI31
aI-44
aI35
aI-46
aI54
aI1
aI51
aI-70
aI76
aI37
aI54
aI56
aI63
aI-14
aI7
aI38
aI-10
aI11
aI37
aI56
aI-7
aI-45
aI72
aI80
aI-23
aI34
aI41
aI-27
aI55
aI-16
aI-12
aI58
aI-45
aI1
aI25
aI52
aI-62
aI80
aI53
aI59
aI-17
aI-1
aI68
aI-8
aI53
aI-65
aI73
aI-70
aI38
aI15
aI-72
aI35
aI67
aI9
aI-45
aI58
aI-78
aI-58
aI-57
aI65
aI-76
aa(lp98
I-6
aI32
aI-74
aI-68
aI-80
aI-8
aI34
aI-42
aI-40
aI39
aI-19
aI-37
aI66
aI35
aI-57
aI-13
aI41
aI-69
aI-59
aI19
aI-58
aI79
aI61
aI-35
aI32
aI-35
aI-17
aI-34
aI58
aI-74
aI-11
aI5
aI55
aI-80
aI20
aI-70
aI65
aI-30
aI-21
aI39
aI20
aI72
aI-5
aI27
aI-1
aI7
aI13
aI65
aI14
aI33
aI-64
aI-44
aI-19
aI-13
aI0
aI-43
aI-32
aI1
aI-31
aI-19
aI62
aI-21
aI-48
aI39
aI-54
aI-17
aI-20
aI-43
aI-13
aI-50
aI0
aI6
aI72
aI-73
aI27
aI51
aI22
aI64
aI-7
aI73
aa(lp99
I18
aI-32
aI17
aI-5
aI3
aI4
aI-60
aI19
aI22
aI-79
aI-45
aI22
aI5
aI45
aI6
aI-65
aI21
aI45
aI-45
aI-6
aI-65
aI33
aI-26
aI-23
aI-63
aI-6
aI-45
aI12
aI-43
aI-34
aI61
aI70
aI-47
aI-2
aI15
aI66
aI-75
aI65
aI13
aI32
aI-11
aI-60
aI1
aI13
aI-13
aI74
aI-9
aI65
aI-78
aI-14
aI71
aI-67
aI36
aI79
aI-69
aI-16
aI-75
aI-80
aI-73
aI65
aI38
aI56
aI-9
aI-19
aI-51
aI-16
aI5
aI-40
aI28
aI-59
aI27
aI-38
aI25
aI15
aI-4
aI3
aI73
aI72
aI-78
aI48
aa(lp100
I17
aI-18
aI15
aI-21
aI-27
aI25
aI-66
aI74
aI8
aI21
aI44
aI63
aI69
aI23
aI79
aI35
aI54
aI-24
aI-24
aI-42
aI49
aI-53
aI-8
aI51
aI79
aI-19
aI-71
aI-80
aI55
aI14
aI53
aI55
aI-54
aI57
aI-8
aI-66
aI-49
aI-70
aI41
aI27
aI28
aI-13
aI42
aI-59
aI56
aI37
aI-40
aI-13
aI3
aI67
aI-35
aI41
aI-37
aI-43
aI-74
aI59
aI23
aI-74
aI61
aI-33
aI56
aI1
aI-35
aI76
aI33
aI-15
aI69
aI78
aI-77
aI69
aI52
aI16
aI-40
aI17
aI-61
aI-8
aI53
aI29
aI-31
aI54
aa.