(lp0
(lp1
I23
aI-80
aI51
aI-18
aI-14
aI-13
aI-68
aI58
aI-83
aI60
aI-45
aI-39
aI1
aI-44
aI-55
aI-17
aI-49
aI-74
aI13
aI-12
aI26
aI76
aI48
aI22
aI-68
aI30
aI17
aI-61
aI87
aI44
aI-68
aI-18
aI50
aI-19
aI44
aI24
aI43
aI-67
aI40
aI24
aI80
aI88
aI-25
aI-23
aI51
aI-27
aI1
aI-76
aI-70
aI79
aI51
aI-23
aI-47
aI24
aI59
aI-3
aI-67
aI-90
aI85
aI-13
aI11
aI-79
aI88
aI31
aI53
aI-27
aI-43
aI-80
aI15
aI-31
aI13
aI-77
aI-35
aI-3
aI72
aI-17
aI-32
aI80
aI-72
aI65
aI-65
aI90
aI-29
aI20
aI18
aI-64
aI-74
aI-89
aI62
aI46
aa(lp2
I53
aI82
aI-59
aI74
aI41
aI-23
aI-75
aI37
aI-11
aI-44
aI31
aI-44
aI-22
aI10
aI32
aI-36
aI-37
aI-28
aI-39
aI72
aI-78
aI-5
aI26
aI-7
aI-2
aI-40
aI-27
aI-52
aI64
aI-5
aI-7
aI-26
aI85
aI39
aI-90
aI65
aI59
aI77
aI20
aI56
aI75
aI-38
aI7
aI11
aI-42
aI59
aI39
aI13
aI-15
aI-70
aI-63
aI-38
aI44
aI78
aI2
aI48
aI11
aI-64
aI17
aI-39
aI57
aI3
aI41
aI-87
aI-14
aI-86
aI-78
aI-2
aI-41
aI80
aI-61
aI-49
aI24
aI10
aI85
aI-22
aI42
aI-58
aI-33
aI32
aI9
aI49
aI-14
aI35
aI-36
aI-90
aI90
aI15
aI65
aI-13
aa(lp3
I46
aI-51
aI-32
aI30
aI1
aI77
aI-86
aI-13
aI-39
aI-6
aI33
aI-13
aI84
aI-41
aI-17
aI-17
aI-13
aI-50
aI-15
aI-19
aI40
aI-9
aI-20
aI78
aI31
aI-41
aI19
aI-76
aI-66
aI28
aI-58
aI3
aI-23
aI7
aI-57
aI-26
aI86
aI89
aI-11
aI-59
aI52
aI39
aI30
aI62
aI57
aI16
aI1
aI83
aI84
aI82
aI-75
aI-24
aI-54
aI89
aI-31
aI-90
aI1
aI37
aI2
aI46
aI-26
aI-24
aI52
aI34
aI74
aI0
aI77
aI-28
aI72
aI22
aI-30
aI4
aI-39
aI5
aI-22
aI60
aI-45
aI5
aI36
aI-21
aI39
aI63
aI28
aI-30
aI78
aI-61
aI78
aI-66
aI86
aI50
aa(lp4
I-89
aI22
aI-62
aI4
aI-49
aI71
aI84
aI-68
aI-86
aI45
aI-27
aI-4
aI1
aI-8
aI-66
aI50
aI35
aI-5
aI-8
aI9
aI-82
aI-57
aI15
aI-32
aI-10
aI-8
aI-7
aI-31
aI-68
aI-17
aI-26
aI-13
aI-2
aI74
aI50
aI14
aI-18
aI-46
aI-19
aI11
aI10
aI-15
aI59
aI64
aI-80
aI86
aI17
aI-53
aI44
aI-40
aI59
aI-31
aI57
aI-83
aI-67
aI80
aI-30
aI70
aI28
aI-84
aI33
aI-27
aI-57
aI-8
aI38
aI7
aI70
aI53
aI-36
aI45
aI9
aI-3
aI41
aI-45
aI88
aI-29
aI50
aI-90
aI1
aI-86
aI74
aI-26
aI-53
aI-10
aI-65
aI-23
aI8
aI42
aI-77
aI72
aa(lp5
I-35
aI5
aI90
aI-23
aI27
aI55
aI-5
aI-82
aI-86
aI38
aI26
aI31
aI56
aI-41
aI59
aI-65
aI89
aI-72
aI24
aI41
aI-32
aI45
aI-11
aI-75
aI4
aI25
aI79
aI65
aI25
aI-61
aI-65
aI-39
aI20
aI68
aI47
aI-22
aI55
aI56
aI-24
aI-35
aI-14
aI-2
aI10
aI-32
aI-52
aI71
aI27
aI-9
aI49
aI11
aI75
aI-79
aI38
aI-15
aI17
aI-39
aI54
aI11
aI85
aI77
aI10
aI-18
aI7
aI54
aI13
aI-61
aI-60
aI65
aI-31
aI-84
aI86
aI-44
aI21
aI66
aI9
aI33
aI-74
aI34
aI-73
aI80
aI-6
aI4
aI-5
aI70
aI-81
aI59
aI-51
aI11
aI75
aI50
aa(lp6
I63
aI46
aI-35
aI19
aI-19
aI80
aI79
aI39
aI54
aI-32
aI31
aI15
aI-85
aI74
aI-1
aI-66
aI-53
aI-46
aI-71
aI-39
aI-11
aI-56
aI11
aI19
aI-51
aI37
aI-10
aI-70
aI61
aI-5
aI28
aI-66
aI-34
aI-68
aI-58
aI-3
aI8
aI-4
aI-43
aI44
aI2
aI-25
aI-33
aI-79
aI89
aI-28
aI-51
aI-71
aI-88
aI-7
aI-87
aI47
aI70
aI-9
aI61
aI21
aI77
aI-12
aI-81
aI9
aI-9
aI-10
aI70
aI53
aI32
aI-83
aI14
aI20
aI19
aI27
aI-70
aI10
aI-67
aI-81
aI29
aI-33
aI-73
aI88
aI-14
aI-40
aI24
aI-79
aI28
aI39
aI-57
aI-44
aI42
aI16
aI-6
aI81
aa(lp7
I-18
aI11
aI19
aI8
aI83
aI72
aI-52
aI-35
aI31
aI-62
aI69
aI-79
aI28
aI-62
aI-26
aI56
aI-87
aI65
aI-50
aI-11
aI13
aI-57
aI-90
aI89
aI-48
aI57
aI-38
aI35
aI-79
aI-57
aI43
aI-85
aI37
aI62
aI-72
aI77
aI16
aI27
aI-74
aI-39
aI-89
aI42
aI86
aI41
aI-82
aI-70
aI73
aI-79
aI86
aI22
aI74
aI77
aI-90
aI-58
aI-3
aI-81
aI-69
aI-82
aI-23
aI-3
aI6
aI49
aI-11
aI26
aI33
aI36
aI-12
aI-20
aI-48
aI-58
aI56
aI42
aI-33
aI-4
aI-32
aI40
aI-2
aI26
aI59
aI-86
aI5
aI-57
aI-15
aI-26
aI-1
aI-83
aI15
aI-57
aI28
aI-88
aa(lp8
I18
aI-86
aI-72
aI-64
aI-48
aI22
aI-6
aI-8
aI-6
aI51
aI30
aI37
aI-33
aI-26
aI65
aI40
aI16
aI33
aI80
aI76
aI78
aI-66
aI26
aI-26
aI3
aI79
aI-59
aI18
aI-83
aI-84
aI29
aI-9
aI54
aI-66
aI-8
aI-32
aI-48
aI-56
aI57
aI-7
aI-33
aI46
aI-22
aI-5
aI18
aI34
aI-66
aI16
aI70
aI27
aI-60
aI-64
aI54
aI-36
aI-57
aI-86
aI71
aI-21
aI65
aI-70
aI56
aI-60
aI-39
aI-77
aI89
aI81
aI-15
aI-37
aI87
aI-45
aI-28
aI-82
aI0
aI-10
aI-4
aI-82
aI-1
aI-9
aI46
aI34
aI50
aI-43
aI-62
aI19
aI40
aI40
aI15
aI42
aI-57
aI-86
aa(lp9
I18
aI-65
aI-64
aI-34
aI39
aI-69
aI-18
aI56
aI-81
aI54
aI35
aI10
aI-37
aI50
aI-75
aI61
aI-34
aI-73
aI11
aI82
aI-46
aI68
aI-52
aI-47
aI90
aI-60
aI84
aI76
aI-73
aI51
aI90
aI23
aI-15
aI16
aI-12
aI-11
aI48
aI-75
aI79
aI-8
aI-24
aI-15
aI73
aI74
aI-76
aI-15
aI-71
aI-9
aI16
aI-65
aI73
aI-5
aI89
aI-86
aI-89
aI-51
aI-90
aI81
aI-67
aI-41
aI34
aI78
aI-4
aI-34
aI20
aI24
aI-65
aI-19
aI-33
aI-67
aI84
aI-75
aI-35
aI-22
aI-40
aI-18
aI-76
aI56
aI-35
aI-85
aI-30
aI-84
aI29
aI-47
aI31
aI-4
aI45
aI-52
aI19
aI56
aa(lp10
I-73
aI8
aI-78
aI-60
aI-85
aI14
aI-14
aI-55
aI26
aI29
aI-35
aI-68
aI-23
aI-6
aI62
aI-39
aI31
aI38
aI60
aI-42
aI-50
aI-68
aI-60
aI-65
aI73
aI80
aI41
aI25
aI-33
aI69
aI72
aI11
aI40
aI-64
aI61
aI17
aI24
aI-54
aI44
aI73
aI-90
aI75
aI45
aI-14
aI-13
aI84
aI27
aI36
aI3
aI75
aI-79
aI37
aI-74
aI-79
aI-9
aI-74
aI-6
aI45
aI64
aI7
aI-21
aI69
aI56
aI-25
aI-16
aI-15
aI-1
aI83
aI-57
aI-88
aI-13
aI-23
aI-25
aI61
aI64
aI67
aI7
aI74
aI-39
aI-22
aI-61
aI-25
aI49
aI-53
aI77
aI34
aI28
aI-50
aI-24
aI5
aa(lp11
I4
aI90
aI-31
aI-49
aI-17
aI11
aI18
aI-3
aI43
aI-59
aI77
aI88
aI11
aI-53
aI71
aI42
aI-55
aI75
aI43
aI31
aI77
aI-77
aI-89
aI76
aI-38
aI51
aI64
aI73
aI-90
aI36
aI-49
aI-74
aI-50
aI45
aI-63
aI90
aI-1
aI-79
aI71
aI55
aI-20
aI75
aI41
aI72
aI-77
aI8
aI-11
aI37
aI-73
aI-63
aI-32
aI-85
aI-2
aI-35
aI-25
aI-88
aI69
aI52
aI30
aI-7
aI-3
aI33
aI-59
aI-3
aI-50
aI-80
aI-69
aI-29
aI38
aI-70
aI65
aI4
aI11
aI45
aI73
aI-88
aI-47
aI-47
aI30
aI-68
aI4
aI-67
aI42
aI85
aI83
aI13
aI76
aI20
aI-87
aI-26
aa(lp12
I-26
aI-19
aI56
aI22
aI-78
aI43
aI86
aI-42
aI-55
aI76
aI-2
aI-34
aI-4
aI-19
aI-14
aI-65
aI-81
aI74
aI40
aI-18
aI84
aI17
aI68
aI-39
aI38
aI68
aI2
aI64
aI-83
aI39
aI-64
aI86
aI34
aI67
aI80
aI-4
aI21
aI83
aI-46
aI67
aI-54
aI-78
aI3
aI32
aI-88
aI-50
aI-43
aI79
aI64
aI45
aI78
aI22
aI43
aI-31
aI-37
aI60
aI64
aI-1
aI2
aI34
aI51
aI31
aI-39
aI-69
aI-88
aI-9
aI79
aI-37
aI-16
aI-81
aI85
aI75
aI13
aI75
aI-53
aI37
aI50
aI82
aI-25
aI80
aI43
aI-21
aI89
aI-21
aI-77
aI-90
aI6
aI-14
aI-84
aI69
aa(lp13
I27
aI-31
aI41
aI-31
aI89
aI65
aI88
aI86
aI-79
aI-82
aI-37
aI-88
aI-62
aI-25
aI10
aI-45
aI-35
aI36
aI-3
aI-80
aI-69
aI48
aI-40
aI-70
aI81
aI11
aI-56
aI-40
aI67
aI70
aI-38
aI-74
aI-70
aI31
aI11
aI-87
aI-81
aI-80
aI20
aI-43
aI77
aI21
aI-44
aI-52
aI-52
aI26
aI7
aI-24
aI60
aI53
aI-64
aI35
aI19
aI-41
aI40
aI-3
aI2
aI-16
aI82
aI80
aI-51
aI-82
aI-32
aI0
aI-9
aI75
aI-23
aI-84
aI-73
aI-10
aI35
aI-55
aI64
aI60
aI-59
aI5
aI-89
aI16
aI-18
aI-48
aI64
aI-4
aI-19
aI-57
aI-49
aI-80
aI-71
aI-25
aI61
aI-28
aa(lp14
I-19
aI-26
aI-23
aI-80
aI-24
aI88
aI-64
aI-1
aI73
aI82
aI24
aI46
aI-61
aI8
aI-11
aI-37
aI-16
aI78
aI34
aI-30
aI-43
aI-45
aI-71
aI-33
aI-71
aI11
aI15
aI13
aI-69
aI83
aI23
aI-77
aI-50
aI-57
aI46
aI85
aI-43
aI41
aI67
aI62
aI-69
aI25
aI25
aI47
aI-44
aI76
aI-46
aI29
aI16
aI-65
aI51
aI-83
aI4
aI45
aI66
aI90
aI-31
aI61
aI75
aI15
aI37
aI-90
aI22
aI76
aI-53
aI9
aI3
aI9
aI49
aI26
aI47
aI-83
aI-24
aI12
aI-38
aI33
aI-82
aI70
aI-9
aI51
aI-37
aI-56
aI10
aI64
aI7
aI51
aI49
aI90
aI-63
aI9
aa(lp15
I83
aI-63
aI-89
aI-60
aI16
aI-56
aI-31
aI79
aI-55
aI35
aI-12
aI85
aI54
aI53
aI89
aI85
aI-64
aI-81
aI65
aI89
aI-5
aI-53
aI-40
aI-12
aI36
aI-39
aI36
aI-50
aI-88
aI-45
aI-70
aI85
aI-22
aI49
aI90
aI-62
aI-41
aI79
aI-35
aI-66
aI50
aI15
aI-68
aI26
aI13
aI-26
aI-74
aI-69
aI-60
aI89
aI-17
aI82
aI62
aI-34
aI-83
aI65
aI-53
aI27
aI-43
aI1
aI-51
aI-23
aI-37
aI-21
aI-33
aI-60
aI-20
aI-22
aI-79
aI-41
aI-16
aI6
aI-53
aI56
aI18
aI74
aI18
aI-7
aI85
aI57
aI-32
aI90
aI84
aI34
aI59
aI86
aI-18
aI66
aI-60
aI44
aa(lp16
I-55
aI79
aI-9
aI20
aI-77
aI2
aI-27
aI-23
aI74
aI-16
aI-71
aI1
aI73
aI41
aI-28
aI63
aI82
aI-90
aI18
aI30
aI44
aI-63
aI47
aI65
aI73
aI2
aI-8
aI66
aI-83
aI82
aI-69
aI11
aI57
aI-42
aI-11
aI-51
aI12
aI87
aI5
aI23
aI-38
aI82
aI8
aI-86
aI-61
aI-40
aI-17
aI38
aI9
aI7
aI68
aI31
aI-63
aI47
aI-32
aI-45
aI27
aI39
aI-74
aI-79
aI11
aI-5
aI-17
aI-70
aI55
aI20
aI39
aI42
aI42
aI-70
aI-80
aI16
aI-84
aI14
aI-66
aI-31
aI-80
aI54
aI41
aI-54
aI65
aI61
aI-13
aI-39
aI17
aI-55
aI-75
aI-5
aI-22
aI-36
aa(lp17
I-77
aI47
aI-49
aI-22
aI-11
aI71
aI-11
aI-56
aI86
aI37
aI66
aI48
aI-33
aI-88
aI-39
aI-87
aI47
aI11
aI-45
aI-39
aI87
aI-73
aI-36
aI34
aI-84
aI-72
aI-67
aI6
aI7
aI72
aI-36
aI-36
aI75
aI-74
aI14
aI55
aI-23
aI35
aI-52
aI56
aI24
aI68
aI-22
aI-79
aI55
aI-77
aI-83
aI-85
aI54
aI79
aI34
aI-58
aI18
aI64
aI-3
aI-39
aI-35
aI12
aI-2
aI-31
aI-43
aI34
aI25
aI28
aI62
aI-87
aI30
aI31
aI21
aI-43
aI18
aI36
aI57
aI50
aI-25
aI-9
aI-59
aI-3
aI-89
aI-35
aI-62
aI-73
aI32
aI39
aI79
aI60
aI85
aI-55
aI-29
aI59
aa(lp18
I59
aI-11
aI-88
aI51
aI-78
aI13
aI-62
aI-73
aI-79
aI55
aI-31
aI-43
aI54
aI-71
aI-1
aI86
aI33
aI24
aI8
aI-15
aI-26
aI68
aI33
aI-61
aI-66
aI71
aI90
aI-51
aI-61
aI56
aI41
aI-8
aI-48
aI69
aI-38
aI48
aI-75
aI-4
aI-60
aI-23
aI-41
aI-85
aI25
aI-12
aI84
aI36
aI68
aI73
aI-23
aI-2
aI-51
aI34
aI51
aI-71
aI9
aI26
aI74
aI-9
aI-24
aI-57
aI-19
aI-85
aI75
aI-18
aI77
aI43
aI28
aI74
aI-64
aI83
aI84
aI72
aI48
aI38
aI85
aI40
aI19
aI-1
aI-80
aI8
aI-14
aI3
aI56
aI70
aI-2
aI15
aI35
aI-71
aI84
aI7
aa(lp19
I40
aI75
aI49
aI4
aI27
aI26
aI-7
aI-28
aI-6
aI-85
aI-42
aI71
aI70
aI-76
aI30
aI-23
aI76
aI68
aI45
aI-64
aI-17
aI-65
aI47
aI-8
aI-64
aI-14
aI16
aI7
aI-65
aI24
aI-61
aI70
aI-71
aI-33
aI-10
aI-17
aI45
aI-58
aI-79
aI44
aI-18
aI43
aI11
aI-22
aI-21
aI78
aI18
aI-90
aI-45
aI-49
aI55
aI-37
aI15
aI-48
aI23
aI88
aI-81
aI14
aI-20
aI88
aI-38
aI53
aI-56
aI58
aI69
aI41
aI-41
aI33
aI-26
aI-44
aI10
aI-71
aI79
aI-69
aI-77
aI11
aI73
aI68
aI49
aI4
aI40
aI0
aI28
aI1
aI11
aI11
aI-46
aI54
aI46
aI-60
aa(lp20
I37
aI-20
aI-72
aI-77
aI25
aI-29
aI-17
aI21
aI12
aI86
aI-66
aI-29
aI-74
aI50
aI62
aI29
aI-56
aI-51
aI-18
aI-65
aI-10
aI68
aI-45
aI-74
aI24
aI-46
aI-9
aI-33
aI-42
aI6
aI-67
aI-34
aI-60
aI0
aI-38
aI-33
aI-88
aI49
aI69
aI39
aI6
aI-88
aI58
aI-34
aI-63
aI-4
aI71
aI23
aI58
aI-56
aI19
aI-70
aI-1
aI43
aI58
aI87
aI7
aI-28
aI38
aI-35
aI-23
aI-73
aI78
aI39
aI-88
aI-65
aI33
aI22
aI-67
aI3
aI-50
aI60
aI17
aI81
aI35
aI-76
aI-88
aI43
aI37
aI-24
aI43
aI25
aI42
aI42
aI-68
aI31
aI-33
aI36
aI-56
aI67
aa(lp21
I22
aI-88
aI-68
aI35
aI-19
aI-66
aI-8
aI-21
aI-1
aI66
aI2
aI-1
aI21
aI67
aI-37
aI-67
aI-11
aI86
aI-64
aI8
aI38
aI22
aI36
aI28
aI-40
aI15
aI-23
aI-18
aI-60
aI-44
aI68
aI31
aI48
aI-46
aI82
aI-42
aI90
aI-57
aI-58
aI-49
aI-83
aI-47
aI-39
aI9
aI-80
aI57
aI-88
aI-74
aI-81
aI13
aI-78
aI-53
aI-70
aI6
aI-9
aI0
aI17
aI-22
aI84
aI-66
aI41
aI40
aI35
aI87
aI-72
aI5
aI22
aI23
aI-66
aI-27
aI7
aI-81
aI28
aI8
aI-16
aI83
aI76
aI2
aI-56
aI-22
aI-44
aI46
aI-40
aI20
aI-31
aI36
aI-21
aI-59
aI-86
aI-76
aa(lp22
I-61
aI36
aI-54
aI-3
aI-26
aI-9
aI-66
aI9
aI63
aI-37
aI-89
aI-32
aI64
aI-23
aI57
aI-66
aI-8
aI-84
aI37
aI-8
aI-87
aI13
aI-89
aI-18
aI62
aI5
aI-27
aI-67
aI44
aI-90
aI67
aI52
aI-64
aI43
aI89
aI73
aI73
aI-75
aI43
aI47
aI-44
aI49
aI10
aI-25
aI61
aI-35
aI18
aI26
aI-82
aI78
aI-5
aI22
aI-37
aI75
aI-46
aI-39
aI-79
aI73
aI-57
aI-45
aI7
aI50
aI21
aI-88
aI62
aI80
aI61
aI43
aI49
aI18
aI-77
aI48
aI85
aI47
aI-61
aI84
aI-16
aI-87
aI-88
aI52
aI26
aI17
aI-70
aI-75
aI-6
aI-58
aI-30
aI-19
aI-16
aI-71
aa(lp23
I8
aI55
aI-90
aI89
aI-42
aI33
aI52
aI57
aI61
aI86
aI-1
aI41
aI61
aI83
aI44
aI52
aI24
aI-83
aI51
aI90
aI79
aI-29
aI-50
aI71
aI-8
aI-22
aI-71
aI-18
aI-44
aI-84
aI89
aI-2
aI-23
aI-57
aI-62
aI-44
aI85
aI60
aI37
aI25
aI39
aI-15
aI79
aI59
aI-27
aI62
aI-19
aI-33
aI-61
aI30
aI-61
aI45
aI25
aI35
aI-49
aI85
aI27
aI-74
aI2
aI34
aI-33
aI-73
aI-87
aI-55
aI10
aI64
aI-35
aI20
aI70
aI-10
aI-79
aI64
aI8
aI44
aI-22
aI-68
aI24
aI-73
aI30
aI44
aI-55
aI31
aI-86
aI-89
aI-74
aI29
aI51
aI30
aI62
aI33
aa(lp24
I-35
aI90
aI55
aI50
aI33
aI-25
aI87
aI19
aI82
aI61
aI25
aI88
aI48
aI80
aI28
aI52
aI58
aI21
aI9
aI81
aI0
aI9
aI-89
aI75
aI-1
aI63
aI79
aI18
aI-64
aI-14
aI-55
aI53
aI-16
aI12
aI77
aI40
aI11
aI25
aI-55
aI-31
aI42
aI-82
aI54
aI-57
aI-67
aI23
aI-63
aI-82
aI38
aI-61
aI-23
aI-39
aI35
aI61
aI-31
aI63
aI9
aI79
aI-67
aI-49
aI27
aI10
aI13
aI-33
aI70
aI11
aI-26
aI9
aI19
aI-17
aI-26
aI81
aI-59
aI-68
aI-18
aI-29
aI63
aI-74
aI-3
aI37
aI-33
aI-12
aI-34
aI51
aI48
aI41
aI12
aI25
aI-13
aI44
aa(lp25
I61
aI39
aI-87
aI70
aI77
aI49
aI-49
aI65
aI-44
aI9
aI-57
aI-66
aI31
aI-27
aI-29
aI42
aI39
aI-14
aI48
aI-2
aI23
aI37
aI32
aI-50
aI16
aI-75
aI-45
aI2
aI-39
aI39
aI-77
aI-19
aI-27
aI69
aI3
aI-77
aI-90
aI-47
aI77
aI-57
aI86
aI-17
aI-29
aI-79
aI-76
aI-50
aI29
aI-76
aI-62
aI53
aI-58
aI-22
aI7
aI-7
aI-24
aI-81
aI5
aI35
aI6
aI80
aI76
aI8
aI4
aI-50
aI48
aI44
aI6
aI-54
aI-47
aI-70
aI-64
aI79
aI-67
aI-7
aI13
aI23
aI-78
aI-20
aI70
aI46
aI20
aI87
aI0
aI-10
aI46
aI12
aI-3
aI1
aI9
aI-48
aa(lp26
I15
aI-61
aI8
aI88
aI-82
aI-72
aI-81
aI86
aI-34
aI81
aI-61
aI-67
aI-49
aI-21
aI35
aI-1
aI18
aI-47
aI-73
aI43
aI26
aI7
aI-88
aI69
aI62
aI74
aI-54
aI42
aI-55
aI-63
aI-29
aI-70
aI-14
aI-9
aI89
aI45
aI-42
aI-54
aI-61
aI72
aI27
aI40
aI-35
aI-74
aI25
aI-45
aI-26
aI-71
aI-34
aI-50
aI-77
aI51
aI80
aI-8
aI55
aI-27
aI88
aI56
aI-7
aI50
aI-73
aI-44
aI-40
aI43
aI52
aI83
aI-12
aI-81
aI23
aI-21
aI-54
aI62
aI-64
aI-32
aI-47
aI-65
aI-11
aI-8
aI-69
aI-23
aI-24
aI-82
aI89
aI-34
aI60
aI-41
aI-85
aI-11
aI-78
aI-20
aa(lp27
I-25
aI-75
aI-34
aI-41
aI-8
aI22
aI-1
aI-68
aI-18
aI-2
aI28
aI-57
aI45
aI-90
aI-33
aI4
aI16
aI27
aI-26
aI-1
aI88
aI60
aI87
aI-64
aI-24
aI16
aI57
aI26
aI57
aI-23
aI7
aI-49
aI-46
aI-50
aI-11
aI36
aI-41
aI-11
aI-65
aI-81
aI-10
aI-61
aI-8
aI83
aI-1
aI-46
aI41
aI-6
aI-62
aI17
aI23
aI72
aI-66
aI-17
aI-13
aI-7
aI-33
aI42
aI-85
aI71
aI-6
aI77
aI-80
aI38
aI-5
aI10
aI62
aI82
aI-48
aI-11
aI-17
aI-55
aI-88
aI85
aI-79
aI84
aI33
aI-42
aI-6
aI-30
aI-39
aI-84
aI68
aI-22
aI-21
aI46
aI28
aI43
aI8
aI-21
aa(lp28
I-65
aI-52
aI-31
aI21
aI17
aI-23
aI-46
aI88
aI70
aI23
aI-2
aI-59
aI21
aI80
aI21
aI71
aI62
aI-38
aI2
aI-67
aI-62
aI-20
aI-53
aI-70
aI39
aI56
aI-68
aI15
aI-87
aI48
aI66
aI-45
aI85
aI-31
aI33
aI-3
aI-38
aI41
aI-42
aI-1
aI-39
aI-8
aI41
aI88
aI-78
aI-87
aI85
aI-25
aI58
aI57
aI-63
aI17
aI28
aI-18
aI-3
aI-86
aI-4
aI76
aI67
aI14
aI-15
aI0
aI-45
aI-54
aI-16
aI29
aI-86
aI-5
aI0
aI-28
aI-83
aI56
aI36
aI79
aI-69
aI77
aI-6
aI20
aI-50
aI-61
aI65
aI41
aI-67
aI-89
aI-4
aI-67
aI32
aI89
aI72
aI-31
aa(lp29
I-76
aI33
aI-53
aI-43
aI50
aI-30
aI51
aI54
aI48
aI-89
aI62
aI-84
aI-82
aI88
aI-2
aI-26
aI66
aI-57
aI-21
aI-32
aI64
aI47
aI88
aI-10
aI48
aI26
aI84
aI30
aI38
aI28
aI18
aI-45
aI60
aI41
aI-85
aI34
aI-38
aI-6
aI17
aI23
aI61
aI-52
aI-13
aI14
aI78
aI47
aI55
aI-29
aI-5
aI-9
aI42
aI-86
aI85
aI64
aI48
aI48
aI-51
aI-60
aI9
aI-21
aI10
aI-61
aI-38
aI72
aI-56
aI-90
aI-58
aI2
aI-22
aI27
aI38
aI-38
aI17
aI71
aI-50
aI84
aI8
aI-40
aI-6
aI-44
aI78
aI7
aI21
aI-22
aI-16
aI57
aI-18
aI-83
aI-67
aI38
aa(lp30
I11
aI14
aI61
aI-86
aI19
aI23
aI0
aI-3
aI15
aI-29
aI85
aI59
aI-24
aI62
aI-77
aI-65
aI48
aI-42
aI34
aI-74
aI42
aI-20
aI-41
aI90
aI46
aI-16
aI48
aI-3
aI-42
aI-89
aI31
aI83
aI-71
aI67
aI19
aI26
aI88
aI55
aI-77
aI85
aI-4
aI41
aI-66
aI-36
aI-39
aI16
aI66
aI-73
aI-64
aI6
aI36
aI74
aI-12
aI39
aI-2
aI-28
aI-42
aI42
aI42
aI-6
aI41
aI35
aI46
aI20
aI-64
aI-34
aI46
aI-48
aI-37
aI-34
aI-90
aI-32
aI-36
aI-52
aI-42
aI-25
aI51
aI56
aI27
aI-88
aI84
aI71
aI77
aI48
aI70
aI40
aI1
aI12
aI39
aI-40
aa(lp31
I-18
aI-39
aI79
aI29
aI-85
aI74
aI-22
aI-31
aI61
aI68
aI-11
aI23
aI-79
aI-3
aI7
aI-45
aI-82
aI-6
aI-3
aI4
aI23
aI85
aI63
aI-49
aI79
aI14
aI40
aI-13
aI55
aI-50
aI50
aI-32
aI-70
aI69
aI53
aI-35
aI57
aI55
aI43
aI-80
aI-78
aI-25
aI72
aI77
aI-44
aI-48
aI85
aI-61
aI-85
aI-18
aI-54
aI-37
aI-49
aI-42
aI-9
aI19
aI18
aI-86
aI47
aI27
aI42
aI67
aI10
aI7
aI65
aI69
aI9
aI-49
aI28
aI-45
aI-14
aI-63
aI-60
aI2
aI60
aI-19
aI-42
aI-10
aI-40
aI68
aI-60
aI-71
aI17
aI-89
aI67
aI71
aI-66
aI-31
aI-69
aI29
aa(lp32
I-90
aI-57
aI-75
aI79
aI56
aI65
aI89
aI11
aI-50
aI34
aI-27
aI-71
aI-62
aI29
aI37
aI27
aI-36
aI-73
aI22
aI83
aI-31
aI-31
aI-80
aI22
aI-10
aI59
aI60
aI79
aI82
aI35
aI-73
aI4
aI60
aI19
aI65
aI-44
aI33
aI-36
aI-76
aI-57
aI-58
aI-85
aI60
aI-87
aI30
aI-67
aI7
aI75
aI14
aI-17
aI46
aI81
aI16
aI50
aI45
aI-32
aI-86
aI-5
aI-25
aI64
aI66
aI55
aI44
aI90
aI-72
aI-50
aI63
aI25
aI-23
aI-43
aI-18
aI-64
aI62
aI16
aI-24
aI-14
aI76
aI42
aI-24
aI-67
aI59
aI76
aI57
aI-11
aI-20
aI-37
aI9
aI20
aI69
aI-82
aa(lp33
I68
aI88
aI-83
aI1
aI-41
aI-29
aI22
aI24
aI51
aI10
aI-37
aI-23
aI26
aI-86
aI89
aI-85
aI-68
aI67
aI8
aI88
aI-16
aI38
aI18
aI86
aI59
aI14
aI-1
aI-17
aI24
aI22
aI-82
aI80
aI-88
aI77
aI10
aI-30
aI38
aI15
aI-85
aI-85
aI-59
aI17
aI-68
aI25
aI76
aI6
aI62
aI-39
aI-11
aI52
aI41
aI38
aI39
aI-43
aI-71
aI31
aI-10
aI-15
aI-54
aI-67
aI-35
aI-89
aI55
aI7
aI-3
aI34
aI-22
aI82
aI80
aI-52
aI23
aI-63
aI-70
aI23
aI-48
aI77
aI-62
aI-17
aI-55
aI0
aI59
aI-18
aI-46
aI49
aI-56
aI7
aI-13
aI61
aI69
aI-54
aa(lp34
I29
aI-70
aI53
aI-12
aI38
aI78
aI-7
aI10
aI-1
aI35
aI72
aI10
aI34
aI-3
aI-23
aI-53
aI-74
aI-54
aI0
aI48
aI23
aI-54
aI-86
aI20
aI75
aI-21
aI58
aI54
aI18
aI87
aI40
aI65
aI31
aI51
aI83
aI1
aI-56
aI45
aI-72
aI70
aI17
aI40
aI64
aI-53
aI22
aI59
aI26
aI-47
aI-57
aI-67
aI-40
aI-56
aI25
aI77
aI84
aI-13
aI65
aI-65
aI-27
aI85
aI-81
aI24
aI35
aI56
aI-81
aI10
aI32
aI33
aI-19
aI-59
aI7
aI81
aI-12
aI-33
aI73
aI21
aI77
aI-43
aI-24
aI4
aI-86
aI-82
aI-63
aI-12
aI-2
aI-61
aI-63
aI-52
aI19
aI33
aa(lp35
I-38
aI18
aI-56
aI38
aI-13
aI-47
aI-7
aI-60
aI-81
aI-18
aI-23
aI67
aI-82
aI-43
aI63
aI-71
aI64
aI2
aI-60
aI46
aI-8
aI53
aI60
aI49
aI10
aI-83
aI57
aI0
aI-17
aI23
aI-74
aI68
aI46
aI-79
aI-88
aI-8
aI-16
aI-31
aI20
aI72
aI79
aI-88
aI-2
aI33
aI25
aI-8
aI58
aI80
aI44
aI11
aI61
aI73
aI49
aI28
aI-89
aI-36
aI-33
aI-70
aI-38
aI56
aI-62
aI-9
aI89
aI80
aI-14
aI52
aI62
aI50
aI52
aI25
aI-35
aI-21
aI-1
aI-71
aI59
aI66
aI53
aI56
aI90
aI49
aI-36
aI57
aI68
aI-49
aI31
aI70
aI42
aI-1
aI2
aI-80
aa(lp36
I-65
aI-69
aI-48
aI24
aI-32
aI-73
aI1
aI-5
aI-42
aI24
aI72
aI44
aI38
aI51
aI-23
aI-53
aI-62
aI-1
aI42
aI-67
aI-9
aI-20
aI26
aI-84
aI81
aI-21
aI49
aI35
aI-87
aI-16
aI79
aI-81
aI-5
aI22
aI-38
aI6
aI-55
aI-44
aI18
aI-6
aI56
aI58
aI33
aI6
aI-39
aI-24
aI49
aI-34
aI-29
aI-86
aI76
aI22
aI-6
aI-60
aI-45
aI9
aI-83
aI-86
aI-32
aI-83
aI-4
aI15
aI59
aI24
aI-20
aI49
aI75
aI58
aI56
aI-61
aI55
aI-78
aI79
aI-60
aI-57
aI-40
aI-14
aI-73
aI-20
aI75
aI12
aI69
aI-51
aI11
aI-18
aI11
aI20
aI54
aI-58
aI22
aa(lp37
I-75
aI8
aI81
aI61
aI-7
aI45
aI60
aI13
aI-12
aI45
aI-55
aI21
aI61
aI48
aI-26
aI-79
aI27
aI-35
aI35
aI-29
aI87
aI69
aI65
aI51
aI-13
aI10
aI59
aI46
aI-45
aI59
aI-8
aI-61
aI62
aI45
aI-29
aI80
aI-24
aI-57
aI-25
aI18
aI-75
aI57
aI-60
aI36
aI-18
aI-88
aI-68
aI-64
aI57
aI7
aI39
aI-22
aI-16
aI15
aI6
aI-24
aI6
aI-5
aI72
aI88
aI-7
aI47
aI-60
aI-13
aI55
aI-85
aI-45
aI72
aI88
aI-57
aI14
aI-62
aI-19
aI-39
aI-34
aI89
aI37
aI86
aI-74
aI78
aI27
aI-84
aI-28
aI45
aI-34
aI-51
aI6
aI3
aI-23
aI58
aa(lp38
I-33
aI35
aI83
aI12
aI-58
aI44
aI-2
aI-83
aI-41
aI-7
aI57
aI11
aI30
aI-47
aI-3
aI50
aI43
aI49
aI18
aI-55
aI-77
aI-9
aI61
aI-37
aI64
aI32
aI75
aI-77
aI-86
aI-87
aI41
aI-73
aI2
aI0
aI-71
aI-50
aI-76
aI49
aI64
aI85
aI-20
aI85
aI48
aI62
aI-88
aI-64
aI86
aI71
aI45
aI-29
aI-22
aI25
aI27
aI82
aI-39
aI-42
aI24
aI64
aI-11
aI84
aI-54
aI-36
aI15
aI66
aI36
aI-19
aI-67
aI31
aI-69
aI-86
aI26
aI-41
aI72
aI75
aI42
aI-63
aI34
aI5
aI77
aI50
aI-43
aI71
aI56
aI66
aI-72
aI-62
aI32
aI40
aI-22
aI77
aa(lp39
I76
aI-65
aI-47
aI74
aI-8
aI-35
aI87
aI2
aI9
aI-40
aI35
aI-3
aI-29
aI13
aI-90
aI58
aI-90
aI-87
aI-89
aI-67
aI-38
aI6
aI-7
aI-23
aI-58
aI9
aI57
aI-57
aI-25
aI68
aI-72
aI-63
aI9
aI34
aI55
aI-13
aI57
aI-78
aI-41
aI-26
aI14
aI32
aI-63
aI-8
aI-66
aI4
aI34
aI-89
aI-80
aI60
aI87
aI2
aI-85
aI-60
aI-44
aI56
aI-36
aI-64
aI-24
aI-84
aI-90
aI-48
aI40
aI-58
aI-53
aI22
aI-65
aI-44
aI29
aI73
aI55
aI-34
aI72
aI54
aI-13
aI-47
aI41
aI-10
aI-31
aI-55
aI31
aI-86
aI-29
aI15
aI20
aI-66
aI-56
aI7
aI8
aI68
aa(lp40
I90
aI-22
aI58
aI51
aI30
aI-34
aI79
aI-28
aI-77
aI-60
aI-89
aI63
aI2
aI-56
aI-56
aI90
aI62
aI-22
aI-20
aI-71
aI66
aI68
aI88
aI69
aI45
aI-6
aI-50
aI63
aI-78
aI42
aI81
aI47
aI-75
aI59
aI-10
aI-55
aI-49
aI41
aI87
aI74
aI-37
aI-49
aI-66
aI-86
aI28
aI-19
aI18
aI57
aI-89
aI-61
aI11
aI90
aI56
aI-29
aI-75
aI-9
aI16
aI14
aI59
aI42
aI-39
aI60
aI32
aI-65
aI2
aI-30
aI10
aI-67
aI52
aI-23
aI-62
aI-87
aI45
aI51
aI18
aI84
aI-24
aI-61
aI46
aI-88
aI51
aI39
aI27
aI54
aI3
aI-7
aI-32
aI53
aI62
aI70
aa(lp41
I40
aI70
aI-71
aI-68
aI72
aI-49
aI0
aI-66
aI74
aI5
aI-16
aI56
aI-66
aI-22
aI16
aI-34
aI-43
aI62
aI-72
aI34
aI65
aI-29
aI85
aI-15
aI58
aI37
aI73
aI-8
aI-77
aI-33
aI-30
aI-56
aI38
aI-81
aI-14
aI-33
aI-58
aI-49
aI63
aI66
aI1
aI79
aI21
aI-65
aI-23
aI10
aI83
aI37
aI18
aI73
aI-3
aI39
aI1
aI43
aI-77
aI-24
aI-15
aI-58
aI19
aI81
aI-3
aI74
aI-77
aI18
aI-27
aI88
aI88
aI-43
aI6
aI44
aI42
aI-32
aI43
aI-47
aI30
aI55
aI32
aI4
aI57
aI63
aI79
aI-13
aI-35
aI43
aI18
aI-28
aI-65
aI-24
aI-90
aI42
aa(lp42
I-35
aI13
aI4
aI-18
aI42
aI17
aI-2
aI4
aI-46
aI56
aI0
aI-70
aI17
aI-23
aI-69
aI25
aI35
aI-62
aI19
aI23
aI-82
aI77
aI-58
aI56
aI8
aI86
aI-16
aI-59
aI-86
aI-85
aI45
aI-90
aI87
aI29
aI-20
aI-58
aI69
aI48
aI-83
aI5
aI27
aI-15
aI-66
aI-62
aI-13
aI11
aI81
aI-50
aI-11
aI12
aI19
aI76
aI14
aI85
aI-28
aI78
aI9
aI-50
aI-81
aI60
aI-81
aI-1
aI12
aI18
aI-28
aI83
aI56
aI80
aI23
aI-42
aI-32
aI6
aI43
aI9
aI83
aI-51
aI-46
aI0
aI75
aI51
aI-73
aI51
aI87
aI-26
aI-20
aI-64
aI-44
aI-53
aI-9
aI38
aa(lp43
I-63
aI2
aI-44
aI-68
aI-75
aI61
aI-46
aI54
aI-30
aI-50
aI-55
aI-13
aI-15
aI1
aI35
aI8
aI31
aI52
aI-37
aI8
aI63
aI-56
aI-57
aI17
aI-26
aI84
aI69
aI71
aI74
aI34
aI-88
aI-80
aI-56
aI-41
aI-47
aI8
aI35
aI-74
aI-45
aI24
aI57
aI59
aI-20
aI-40
aI-40
aI52
aI7
aI-86
aI-29
aI-82
aI11
aI30
aI77
aI48
aI21
aI17
aI22
aI80
aI72
aI28
aI15
aI1
aI-78
aI-64
aI1
aI-63
aI18
aI1
aI-51
aI-35
aI15
aI28
aI-45
aI41
aI86
aI61
aI-32
aI67
aI55
aI50
aI-10
aI-86
aI-19
aI29
aI-89
aI6
aI-30
aI30
aI40
aI-63
aa(lp44
I-58
aI11
aI-52
aI89
aI-58
aI37
aI4
aI-31
aI48
aI-75
aI-34
aI-42
aI33
aI-58
aI7
aI33
aI38
aI-40
aI59
aI-55
aI6
aI-37
aI89
aI11
aI10
aI-56
aI-20
aI-60
aI42
aI-14
aI89
aI-88
aI-74
aI52
aI39
aI8
aI31
aI84
aI-17
aI-81
aI60
aI68
aI-12
aI47
aI82
aI-3
aI-5
aI-79
aI80
aI9
aI-5
aI61
aI52
aI78
aI-35
aI-26
aI-65
aI-29
aI80
aI90
aI-20
aI-59
aI-5
aI-54
aI43
aI1
aI64
aI1
aI-52
aI-35
aI31
aI-21
aI25
aI85
aI72
aI80
aI-68
aI-79
aI55
aI7
aI-22
aI-76
aI-49
aI67
aI58
aI-76
aI-73
aI-24
aI72
aI-68
aa(lp45
I15
aI28
aI54
aI-85
aI-11
aI7
aI-71
aI-54
aI-85
aI40
aI59
aI83
aI3
aI76
aI86
aI48
aI88
aI40
aI37
aI23
aI54
aI-16
aI43
aI-90
aI88
aI-14
aI-2
aI-43
aI40
aI-40
aI87
aI44
aI-28
aI-25
aI65
aI-69
aI55
aI-76
aI72
aI-68
aI-83
aI-29
aI-51
aI45
aI87
aI-89
aI41
aI-89
aI78
aI-7
aI-88
aI-10
aI75
aI-76
aI53
aI12
aI36
aI-26
aI89
aI-21
aI-5
aI-82
aI-16
aI-17
aI25
aI24
aI17
aI66
aI-45
aI25
aI-15
aI-42
aI76
aI-37
aI46
aI25
aI-65
aI66
aI57
aI-12
aI62
aI8
aI90
aI-31
aI13
aI2
aI-50
aI82
aI60
aI-31
aa(lp46
I-64
aI85
aI-79
aI-33
aI32
aI89
aI40
aI-86
aI-4
aI-35
aI-52
aI39
aI-49
aI-12
aI-19
aI-18
aI29
aI-68
aI-73
aI49
aI70
aI33
aI-13
aI-70
aI-55
aI-7
aI55
aI37
aI-14
aI83
aI-36
aI-36
aI86
aI-32
aI-24
aI77
aI82
aI4
aI34
aI37
aI33
aI-72
aI24
aI43
aI-14
aI32
aI-40
aI73
aI-8
aI26
aI40
aI-27
aI-31
aI82
aI-36
aI-6
aI-88
aI-9
aI33
aI-40
aI51
aI28
aI-29
aI-28
aI32
aI22
aI62
aI65
aI-73
aI71
aI-89
aI38
aI-56
aI-13
aI60
aI45
aI-46
aI-86
aI-80
aI-76
aI84
aI-1
aI-25
aI71
aI62
aI-25
aI-10
aI54
aI28
aI-7
aa(lp47
I67
aI5
aI-18
aI81
aI-64
aI-5
aI40
aI-35
aI-61
aI-2
aI-28
aI90
aI41
aI-32
aI2
aI63
aI-79
aI-21
aI-46
aI-86
aI-83
aI-31
aI-41
aI-35
aI-20
aI83
aI-73
aI79
aI-63
aI81
aI57
aI72
aI45
aI60
aI68
aI74
aI36
aI-53
aI24
aI46
aI-54
aI90
aI5
aI69
aI-50
aI-2
aI74
aI-82
aI-90
aI-30
aI-2
aI-12
aI-29
aI69
aI47
aI-6
aI-89
aI-32
aI10
aI-67
aI58
aI48
aI-58
aI88
aI-52
aI81
aI-34
aI-21
aI64
aI-7
aI-20
aI-76
aI-83
aI-3
aI-15
aI22
aI47
aI69
aI22
aI-51
aI69
aI73
aI6
aI90
aI-43
aI-70
aI-36
aI-70
aI-61
aI86
aa(lp48
I-73
aI-55
aI-23
aI5
aI-18
aI46
aI-64
aI-88
aI58
aI-63
aI68
aI82
aI-23
aI-45
aI20
aI50
aI-23
aI67
aI-59
aI4
aI85
aI14
aI-46
aI-42
aI52
aI11
aI-47
aI67
aI22
aI-63
aI43
aI-8
aI-81
aI-90
aI-64
aI-29
aI2
aI79
aI87
aI20
aI-57
aI68
aI-58
aI79
aI85
aI-41
aI64
aI-52
aI-47
aI-33
aI-28
aI-61
aI-35
aI40
aI-48
aI72
aI18
aI2
aI67
aI-6
aI75
aI-14
aI-51
aI-12
aI42
aI71
aI73
aI20
aI-40
aI-60
aI-32
aI67
aI10
aI82
aI64
aI30
aI24
aI-10
aI37
aI-89
aI6
aI6
aI-30
aI3
aI32
aI41
aI-12
aI-77
aI68
aI53
aa(lp49
I-28
aI41
aI44
aI40
aI48
aI50
aI-8
aI-81
aI39
aI61
aI28
aI-62
aI38
aI89
aI-83
aI-77
aI-56
aI-12
aI-5
aI11
aI12
aI-38
aI25
aI-18
aI-33
aI57
aI58
aI-17
aI-5
aI65
aI75
aI-5
aI-51
aI12
aI-70
aI-11
aI37
aI60
aI-68
aI24
aI-11
aI26
aI-30
aI-10
aI-47
aI2
aI-47
aI13
aI-28
aI78
aI-5
aI36
aI-71
aI-35
aI69
aI-23
aI-76
aI-19
aI86
aI-72
aI69
aI26
aI3
aI16
aI83
aI-85
aI-41
aI-20
aI-76
aI-36
aI37
aI22
aI77
aI-27
aI85
aI20
aI1
aI19
aI71
aI-60
aI-79
aI47
aI-37
aI-55
aI88
aI45
aI14
aI41
aI-11
aI-45
aa(lp50
I37
aI19
aI-8
aI47
aI11
aI-2
aI53
aI54
aI67
aI48
aI46
aI-10
aI-2
aI66
aI16
aI81
aI16
aI75
aI65
aI34
aI40
aI-40
aI15
aI-33
aI74
aI-49
aI57
aI46
aI-77
aI3
aI-49
aI-51
aI-73
aI-28
aI-51
aI24
aI-69
aI75
aI-16
aI84
aI-84
aI-76
aI-59
aI38
aI8
aI16
aI-29
aI27
aI-72
aI51
aI5
aI-9
aI-59
aI-75
aI-22
aI50
aI82
aI-6
aI-81
aI62
aI-41
aI46
aI26
aI-25
aI26
aI72
aI-33
aI52
aI53
aI-66
aI12
aI-14
aI3
aI89
aI-39
aI56
aI77
aI28
aI78
aI-73
aI-50
aI60
aI-22
aI33
aI48
aI-30
aI75
aI-78
aI35
aI-73
aa(lp51
I-79
aI-78
aI58
aI-83
aI-84
aI-38
aI54
aI19
aI6
aI67
aI-30
aI-52
aI40
aI85
aI-71
aI-20
aI-13
aI-26
aI75
aI-79
aI-40
aI24
aI-25
aI-58
aI-56
aI-47
aI29
aI-13
aI52
aI50
aI-86
aI86
aI-22
aI-41
aI-42
aI4
aI-10
aI78
aI-49
aI25
aI-58
aI-69
aI-73
aI66
aI9
aI4
aI-55
aI-75
aI21
aI50
aI-43
aI-69
aI-38
aI69
aI73
aI-2
aI-74
aI50
aI-45
aI-17
aI71
aI-82
aI-46
aI33
aI-47
aI81
aI-31
aI56
aI7
aI70
aI-53
aI37
aI74
aI-78
aI80
aI75
aI77
aI38
aI-29
aI42
aI-26
aI83
aI-8
aI-59
aI83
aI75
aI56
aI33
aI30
aI89
aa(lp52
I67
aI-26
aI46
aI67
aI-4
aI-47
aI-69
aI-9
aI-24
aI-27
aI-58
aI89
aI14
aI-26
aI16
aI-14
aI-10
aI11
aI70
aI-81
aI-24
aI-49
aI10
aI-54
aI-40
aI10
aI16
aI19
aI62
aI-90
aI-76
aI-32
aI80
aI60
aI-83
aI-42
aI52
aI10
aI31
aI35
aI30
aI-12
aI1
aI-66
aI-11
aI-1
aI17
aI31
aI87
aI22
aI37
aI-1
aI57
aI-60
aI1
aI78
aI85
aI-19
aI-62
aI-74
aI13
aI55
aI42
aI-34
aI-24
aI61
aI46
aI-22
aI-32
aI18
aI-40
aI1
aI-59
aI59
aI-69
aI85
aI-62
aI-84
aI-15
aI21
aI8
aI77
aI-2
aI58
aI-44
aI16
aI56
aI80
aI-7
aI57
aa(lp53
I65
aI78
aI-87
aI-16
aI-75
aI20
aI-63
aI-50
aI76
aI-16
aI-55
aI-14
aI80
aI-9
aI23
aI87
aI-26
aI74
aI-10
aI-6
aI-46
aI67
aI74
aI35
aI-23
aI74
aI-73
aI-88
aI-58
aI1
aI70
aI66
aI12
aI12
aI49
aI-86
aI-59
aI-35
aI64
aI-36
aI-21
aI-11
aI-31
aI-84
aI-77
aI-35
aI-87
aI11
aI0
aI68
aI75
aI78
aI36
aI-33
aI32
aI4
aI-83
aI-60
aI-14
aI58
aI24
aI-19
aI71
aI63
aI-87
aI77
aI76
aI11
aI-25
aI90
aI-40
aI-33
aI-53
aI-66
aI62
aI86
aI13
aI-89
aI-12
aI-6
aI-82
aI-69
aI-12
aI-4
aI-50
aI90
aI-74
aI-5
aI-56
aI-49
aa(lp54
I22
aI-29
aI69
aI45
aI63
aI18
aI87
aI-20
aI68
aI42
aI-44
aI-63
aI-14
aI-16
aI-61
aI81
aI-65
aI-50
aI27
aI-41
aI-33
aI66
aI27
aI-28
aI58
aI10
aI-59
aI-24
aI-34
aI44
aI59
aI-44
aI63
aI48
aI-2
aI57
aI3
aI-21
aI50
aI-74
aI-7
aI76
aI-65
aI52
aI24
aI11
aI-41
aI-47
aI-22
aI30
aI12
aI-9
aI6
aI77
aI-33
aI-11
aI74
aI69
aI-73
aI59
aI-31
aI-13
aI12
aI-79
aI66
aI86
aI80
aI86
aI-86
aI2
aI-13
aI-28
aI-70
aI61
aI63
aI-17
aI-23
aI25
aI59
aI81
aI66
aI65
aI-68
aI59
aI-74
aI-29
aI-34
aI-2
aI34
aI65
aa(lp55
I2
aI-51
aI-16
aI-58
aI26
aI30
aI-46
aI-48
aI-21
aI-34
aI-81
aI37
aI3
aI-32
aI-69
aI85
aI7
aI79
aI86
aI-22
aI-31
aI-28
aI26
aI55
aI-28
aI-44
aI88
aI57
aI31
aI32
aI12
aI-25
aI9
aI-17
aI26
aI-87
aI-80
aI12
aI45
aI81
aI86
aI-77
aI2
aI24
aI-43
aI-51
aI38
aI10
aI-59
aI-49
aI17
aI-51
aI-11
aI-36
aI64
aI-70
aI-48
aI-44
aI-38
aI83
aI-67
aI68
aI47
aI-59
aI79
aI79
aI-44
aI48
aI-77
aI-36
aI-77
aI-52
aI-30
aI73
aI60
aI47
aI85
aI-44
aI75
aI52
aI-25
aI-7
aI-77
aI41
aI12
aI4
aI-74
aI4
aI16
aI76
aa(lp56
I53
aI-80
aI-45
aI76
aI45
aI68
aI-89
aI-10
aI-27
aI27
aI42
aI74
aI-22
aI-18
aI-76
aI60
aI30
aI-13
aI-53
aI66
aI-85
aI58
aI46
aI-1
aI70
aI-24
aI89
aI71
aI-49
aI-46
aI-39
aI-29
aI3
aI17
aI14
aI32
aI45
aI-49
aI4
aI-77
aI22
aI13
aI57
aI45
aI-29
aI-36
aI11
aI-44
aI45
aI88
aI-64
aI-10
aI84
aI17
aI8
aI-48
aI47
aI-10
aI52
aI44
aI90
aI-44
aI-12
aI44
aI-43
aI-61
aI-3
aI34
aI-46
aI-11
aI-15
aI-58
aI60
aI-69
aI-55
aI-57
aI82
aI71
aI71
aI85
aI-67
aI44
aI85
aI69
aI-53
aI80
aI55
aI7
aI-67
aI-68
aa(lp57
I-82
aI14
aI20
aI30
aI22
aI-52
aI-37
aI-36
aI28
aI-48
aI-40
aI-56
aI55
aI-50
aI8
aI-32
aI68
aI22
aI62
aI22
aI-3
aI-23
aI-87
aI-27
aI-3
aI59
aI52
aI-61
aI49
aI-26
aI37
aI-5
aI-32
aI88
aI80
aI-70
aI13
aI-84
aI-81
aI69
aI29
aI-38
aI35
aI-65
aI-23
aI-3
aI31
aI-3
aI-5
aI-70
aI-22
aI-86
aI39
aI88
aI-31
aI-55
aI-1
aI-2
aI-46
aI51
aI69
aI40
aI44
aI-75
aI66
aI-35
aI-18
aI78
aI5
aI44
aI22
aI30
aI-58
aI15
aI-7
aI34
aI-37
aI-29
aI-36
aI84
aI51
aI-17
aI-17
aI-85
aI-85
aI50
aI8
aI54
aI-74
aI56
aa(lp58
I84
aI-80
aI-8
aI-10
aI43
aI-45
aI-37
aI-53
aI-7
aI-36
aI-23
aI-85
aI-35
aI-76
aI-26
aI-70
aI83
aI68
aI86
aI-44
aI-14
aI-8
aI77
aI-48
aI-28
aI37
aI12
aI-13
aI-64
aI62
aI-84
aI-34
aI7
aI-18
aI82
aI-79
aI-30
aI51
aI-51
aI31
aI68
aI6
aI5
aI-54
aI-53
aI64
aI-13
aI-10
aI12
aI-75
aI-67
aI-35
aI49
aI-60
aI-47
aI-6
aI-68
aI-44
aI41
aI81
aI-53
aI-17
aI-73
aI76
aI-80
aI83
aI44
aI-76
aI-76
aI82
aI8
aI11
aI6
aI24
aI-88
aI48
aI87
aI57
aI-73
aI45
aI-69
aI-59
aI-55
aI-19
aI-90
aI-60
aI-32
aI30
aI-83
aI49
aa(lp59
I-61
aI70
aI-21
aI-18
aI79
aI22
aI90
aI-17
aI37
aI22
aI66
aI0
aI-19
aI-61
aI25
aI15
aI-90
aI-54
aI-36
aI-13
aI62
aI90
aI56
aI-5
aI31
aI84
aI6
aI68
aI6
aI86
aI70
aI50
aI-58
aI-75
aI-32
aI18
aI13
aI56
aI-86
aI90
aI-9
aI61
aI58
aI72
aI-60
aI-54
aI49
aI-12
aI45
aI36
aI-26
aI3
aI51
aI86
aI-2
aI-85
aI-84
aI9
aI-81
aI85
aI40
aI16
aI18
aI65
aI-65
aI75
aI-19
aI-33
aI65
aI-16
aI18
aI1
aI40
aI-59
aI-66
aI-61
aI-51
aI-60
aI6
aI-29
aI-51
aI23
aI20
aI86
aI-44
aI-81
aI24
aI76
aI-90
aI-44
aa(lp60
I-10
aI59
aI53
aI-87
aI-9
aI-59
aI45
aI-46
aI16
aI89
aI22
aI-7
aI-21
aI-66
aI3
aI25
aI-42
aI-4
aI33
aI-52
aI-31
aI25
aI-20
aI24
aI-49
aI-65
aI38
aI-78
aI22
aI9
aI13
aI34
aI42
aI-71
aI-81
aI13
aI-19
aI-61
aI33
aI61
aI-81
aI-11
aI73
aI-4
aI0
aI7
aI-41
aI-82
aI10
aI71
aI75
aI6
aI87
aI50
aI-46
aI62
aI1
aI-78
aI-70
aI-64
aI-35
aI28
aI-81
aI-20
aI12
aI-58
aI41
aI19
aI27
aI89
aI-66
aI-58
aI15
aI76
aI17
aI52
aI2
aI-81
aI-63
aI19
aI89
aI-82
aI-23
aI-76
aI89
aI-73
aI-26
aI-37
aI5
aI76
aa(lp61
I63
aI73
aI-56
aI53
aI-27
aI-14
aI81
aI-52
aI-12
aI14
aI62
aI-9
aI25
aI-21
aI-21
aI-20
aI24
aI58
aI28
aI50
aI40
aI51
aI-48
aI85
aI26
aI-66
aI72
aI-43
aI82
aI38
aI18
aI8
aI44
aI61
aI47
aI-57
aI87
aI-14
aI-58
aI-33
aI65
aI40
aI-8
aI76
aI-79
aI-87
aI17
aI-76
aI-41
aI64
aI76
aI54
aI-30
aI87
aI88
aI-86
aI-31
aI30
aI-46
aI-53
aI20
aI24
aI11
aI-23
aI-83
aI37
aI64
aI-28
aI52
aI-78
aI4
aI76
aI-67
aI-66
aI34
aI-86
aI19
aI-83
aI-48
aI31
aI12
aI-27
aI37
aI-73
aI-52
aI15
aI75
aI74
aI80
aI83
aa(lp62
I-61
aI-29
aI85
aI36
aI14
aI27
aI68
aI35
aI-81
aI-83
aI3
aI-3
aI45
aI-68
aI-24
aI83
aI70
aI-89
aI86
aI59
aI86
aI56
aI-44
aI-30
aI-29
aI-61
aI-44
aI-59
aI24
aI-16
aI-5
aI-44
aI-26
aI39
aI-19
aI-55
aI5
aI31
aI69
aI4
aI-81
aI54
aI-41
aI-28
aI57
aI14
aI-83
aI32
aI12
aI-55
aI-61
aI-6
aI-80
aI-62
aI-82
aI-59
aI31
aI-29
aI57
aI-43
aI77
aI-85
aI-9
aI-65
aI-76
aI21
aI-72
aI-88
aI6
aI-47
aI-77
aI-72
aI-82
aI77
aI-28
aI-59
aI82
aI59
aI19
aI60
aI-89
aI54
aI-16
aI-21
aI51
aI-26
aI-52
aI-71
aI79
aI-3
aa(lp63
I-8
aI11
aI-20
aI22
aI22
aI16
aI-51
aI35
aI-87
aI4
aI-5
aI35
aI-13
aI-28
aI87
aI-66
aI-77
aI67
aI3
aI-85
aI-30
aI-65
aI10
aI56
aI7
aI-55
aI-87
aI6
aI-41
aI37
aI-36
aI-62
aI26
aI18
aI-64
aI-49
aI-69
aI46
aI21
aI30
aI-24
aI29
aI-59
aI13
aI68
aI36
aI67
aI80
aI86
aI37
aI76
aI15
aI-9
aI22
aI88
aI-45
aI-29
aI84
aI71
aI89
aI-87
aI49
aI2
aI38
aI-23
aI46
aI56
aI-61
aI-85
aI1
aI-63
aI-18
aI19
aI-71
aI-79
aI-21
aI23
aI32
aI14
aI13
aI28
aI-86
aI-44
aI-80
aI-16
aI-43
aI87
aI26
aI-64
aI30
aa(lp64
I41
aI13
aI2
aI-54
aI75
aI-83
aI25
aI-57
aI-76
aI-28
aI17
aI50
aI33
aI63
aI19
aI-14
aI69
aI45
aI-59
aI80
aI-41
aI67
aI25
aI-68
aI-76
aI-73
aI52
aI82
aI6
aI12
aI-12
aI-8
aI-62
aI52
aI-63
aI-37
aI-45
aI-20
aI-90
aI58
aI-33
aI-29
aI-43
aI-7
aI45
aI14
aI82
aI40
aI-9
aI-25
aI-59
aI39
aI-24
aI-21
aI68
aI-1
aI8
aI-33
aI51
aI14
aI28
aI-83
aI44
aI46
aI46
aI71
aI60
aI7
aI8
aI-37
aI89
aI-42
aI-83
aI33
aI3
aI-60
aI-68
aI32
aI45
aI47
aI-19
aI30
aI-62
aI-37
aI-72
aI-71
aI66
aI-74
aI-83
aI7
aa(lp65
I65
aI-54
aI20
aI-73
aI-14
aI32
aI-35
aI80
aI77
aI-83
aI-57
aI82
aI-90
aI-10
aI43
aI80
aI-11
aI-77
aI36
aI-21
aI-56
aI55
aI24
aI41
aI-67
aI-31
aI26
aI-19
aI-47
aI-69
aI51
aI-66
aI-34
aI-84
aI27
aI55
aI-81
aI14
aI-81
aI-85
aI39
aI-79
aI-64
aI-6
aI-58
aI-1
aI-61
aI-49
aI-36
aI-14
aI56
aI65
aI-73
aI-44
aI-3
aI-11
aI59
aI-55
aI-11
aI86
aI3
aI81
aI-73
aI35
aI-65
aI55
aI4
aI-39
aI-42
aI-32
aI-41
aI57
aI-86
aI-11
aI-1
aI-65
aI-63
aI69
aI-82
aI-21
aI-77
aI-48
aI61
aI-69
aI39
aI-90
aI-61
aI45
aI4
aI-19
aa(lp66
I8
aI-32
aI-40
aI-28
aI78
aI-79
aI29
aI-72
aI35
aI-38
aI29
aI-4
aI83
aI-22
aI56
aI21
aI-74
aI40
aI40
aI56
aI66
aI13
aI37
aI11
aI37
aI14
aI6
aI40
aI71
aI-49
aI80
aI11
aI-49
aI34
aI-8
aI-35
aI23
aI42
aI-65
aI35
aI-68
aI31
aI68
aI-1
aI-37
aI-10
aI-81
aI-40
aI77
aI-57
aI-6
aI43
aI62
aI-87
aI-14
aI50
aI11
aI55
aI4
aI86
aI-55
aI-57
aI14
aI37
aI70
aI-86
aI-11
aI-15
aI12
aI-32
aI70
aI15
aI42
aI49
aI67
aI6
aI83
aI-78
aI28
aI85
aI75
aI20
aI8
aI-20
aI86
aI34
aI24
aI-11
aI-31
aI-33
aa(lp67
I49
aI-43
aI-87
aI89
aI47
aI49
aI-28
aI-87
aI-44
aI6
aI-15
aI-16
aI-45
aI89
aI59
aI-3
aI-24
aI-22
aI-17
aI-40
aI65
aI-37
aI37
aI36
aI-78
aI-63
aI-22
aI-21
aI65
aI1
aI85
aI-86
aI33
aI-60
aI89
aI82
aI45
aI17
aI-16
aI-10
aI29
aI45
aI13
aI-19
aI78
aI53
aI-6
aI60
aI13
aI-84
aI-8
aI-83
aI-14
aI-65
aI-78
aI-38
aI6
aI79
aI-32
aI-43
aI-49
aI11
aI-90
aI-11
aI87
aI90
aI17
aI7
aI17
aI-46
aI75
aI30
aI-25
aI20
aI38
aI-66
aI29
aI73
aI-11
aI-2
aI62
aI83
aI38
aI22
aI-90
aI23
aI24
aI60
aI-17
aI62
aa(lp68
I67
aI-70
aI67
aI-81
aI-51
aI55
aI-37
aI88
aI62
aI6
aI25
aI28
aI-27
aI-44
aI-25
aI26
aI26
aI-30
aI-5
aI59
aI-28
aI-80
aI-47
aI35
aI77
aI61
aI-8
aI31
aI-35
aI-66
aI23
aI-81
aI16
aI-89
aI-17
aI-52
aI-67
aI-46
aI33
aI28
aI68
aI-70
aI-64
aI-54
aI-54
aI20
aI-16
aI16
aI29
aI4
aI16
aI-21
aI74
aI26
aI46
aI35
aI-60
aI22
aI-65
aI35
aI51
aI-78
aI8
aI70
aI-47
aI-54
aI80
aI79
aI81
aI-35
aI-90
aI-50
aI-36
aI53
aI56
aI89
aI9
aI70
aI60
aI-16
aI15
aI78
aI-27
aI77
aI-76
aI-19
aI38
aI-62
aI-51
aI-9
aa(lp69
I57
aI0
aI42
aI-42
aI24
aI-19
aI-5
aI-61
aI-7
aI79
aI-56
aI37
aI90
aI11
aI55
aI-15
aI50
aI90
aI-79
aI-26
aI-86
aI-47
aI77
aI31
aI-59
aI-28
aI-44
aI-42
aI78
aI9
aI-44
aI-61
aI-85
aI35
aI-42
aI-24
aI62
aI76
aI-32
aI-6
aI-57
aI4
aI-13
aI2
aI-25
aI61
aI14
aI78
aI-32
aI-52
aI52
aI-80
aI54
aI-36
aI-43
aI-22
aI-4
aI-50
aI-49
aI-78
aI58
aI-47
aI-9
aI30
aI-64
aI-28
aI-82
aI-77
aI38
aI-89
aI-67
aI65
aI71
aI14
aI-41
aI62
aI18
aI-22
aI56
aI-78
aI-77
aI19
aI-2
aI81
aI-16
aI87
aI-64
aI-56
aI46
aI61
aa(lp70
I-79
aI-4
aI89
aI-79
aI50
aI-51
aI-90
aI69
aI-31
aI-39
aI-23
aI-39
aI12
aI22
aI-81
aI-48
aI-90
aI-3
aI37
aI70
aI-60
aI-3
aI51
aI25
aI73
aI84
aI-15
aI-83
aI-3
aI-39
aI23
aI-64
aI88
aI-19
aI-2
aI74
aI-77
aI61
aI-10
aI-72
aI50
aI54
aI-39
aI66
aI-6
aI-1
aI82
aI-32
aI49
aI75
aI50
aI-82
aI64
aI6
aI-80
aI-3
aI-62
aI-38
aI-15
aI54
aI61
aI-69
aI79
aI-51
aI77
aI-76
aI-16
aI-78
aI-16
aI24
aI-63
aI47
aI-23
aI72
aI-60
aI73
aI9
aI-81
aI-89
aI16
aI-32
aI-33
aI-29
aI24
aI90
aI44
aI-7
aI32
aI12
aI79
aa(lp71
I33
aI-89
aI7
aI83
aI13
aI-18
aI41
aI-32
aI-46
aI89
aI7
aI-43
aI-47
aI77
aI84
aI54
aI-9
aI-26
aI16
aI-71
aI-89
aI77
aI-48
aI60
aI-10
aI-9
aI73
aI24
aI-57
aI88
aI-20
aI-26
aI44
aI-2
aI7
aI61
aI-31
aI53
aI78
aI-88
aI13
aI55
aI-6
aI77
aI81
aI-46
aI-23
aI50
aI-68
aI46
aI-89
aI69
aI-4
aI-30
aI76
aI25
aI21
aI-84
aI-89
aI-23
aI19
aI-79
aI-61
aI4
aI-85
aI-40
aI-29
aI16
aI85
aI-67
aI22
aI8
aI-38
aI-86
aI-16
aI-33
aI-7
aI-28
aI45
aI68
aI58
aI75
aI-66
aI6
aI80
aI77
aI-1
aI-38
aI62
aI-2
aa(lp72
I24
aI45
aI73
aI90
aI-81
aI-41
aI19
aI60
aI-86
aI-75
aI86
aI63
aI64
aI-60
aI-57
aI7
aI57
aI59
aI-84
aI-56
aI-83
aI90
aI-16
aI52
aI-66
aI-87
aI17
aI-42
aI26
aI33
aI-21
aI7
aI-59
aI49
aI51
aI-80
aI88
aI-10
aI77
aI-7
aI46
aI32
aI-20
aI80
aI-15
aI-30
aI-35
aI37
aI-34
aI-12
aI47
aI61
aI-33
aI-84
aI9
aI9
aI76
aI-8
aI-85
aI16
aI60
aI87
aI40
aI-78
aI37
aI-13
aI47
aI-29
aI-73
aI62
aI-23
aI16
aI-7
aI-19
aI-68
aI30
aI81
aI-40
aI-46
aI-22
aI43
aI-7
aI75
aI-46
aI-29
aI54
aI-59
aI85
aI-20
aI69
aa(lp73
I-72
aI36
aI28
aI81
aI85
aI77
aI42
aI-14
aI-61
aI-51
aI29
aI-37
aI-28
aI33
aI6
aI22
aI34
aI88
aI-42
aI-39
aI47
aI13
aI72
aI-89
aI11
aI74
aI60
aI17
aI-70
aI-68
aI-75
aI33
aI85
aI-83
aI-20
aI68
aI57
aI59
aI47
aI-17
aI27
aI90
aI83
aI0
aI75
aI-12
aI87
aI-83
aI-58
aI-17
aI80
aI57
aI66
aI34
aI63
aI84
aI-22
aI-15
aI-1
aI-29
aI-37
aI-33
aI75
aI-35
aI-84
aI63
aI-47
aI16
aI-45
aI-12
aI14
aI39
aI32
aI-83
aI11
aI-76
aI-27
aI-34
aI31
aI2
aI-8
aI-74
aI-44
aI55
aI87
aI27
aI-19
aI-51
aI40
aI-21
aa(lp74
I49
aI-49
aI46
aI89
aI22
aI-69
aI-8
aI60
aI-4
aI-25
aI66
aI44
aI58
aI-76
aI58
aI-33
aI90
aI-14
aI-47
aI58
aI56
aI-1
aI32
aI-8
aI-24
aI-20
aI-62
aI-73
aI7
aI-44
aI43
aI-56
aI1
aI-7
aI25
aI82
aI-44
aI-61
aI-43
aI-88
aI68
aI-55
aI-17
aI14
aI37
aI7
aI54
aI-33
aI1
aI81
aI51
aI30
aI-75
aI19
aI75
aI-53
aI-17
aI65
aI-55
aI90
aI-11
aI-70
aI50
aI87
aI78
aI33
aI20
aI-83
aI-42
aI56
aI-54
aI-45
aI-5
aI58
aI-84
aI-15
aI-60
aI-21
aI22
aI-29
aI-83
aI-88
aI-4
aI-28
aI11
aI14
aI38
aI87
aI81
aI38
aa(lp75
I-62
aI-8
aI-68
aI-77
aI19
aI70
aI-87
aI72
aI-31
aI90
aI83
aI61
aI-2
aI4
aI-1
aI30
aI-16
aI80
aI57
aI-18
aI69
aI82
aI38
aI90
aI-5
aI57
aI79
aI71
aI-84
aI-4
aI18
aI85
aI58
aI8
aI-7
aI28
aI-50
aI-26
aI-61
aI45
aI68
aI-11
aI-30
aI-70
aI11
aI-78
aI84
aI-11
aI27
aI-55
aI-50
aI-4
aI-82
aI14
aI75
aI17
aI-47
aI88
aI2
aI38
aI-21
aI-8
aI33
aI-73
aI18
aI52
aI49
aI48
aI-33
aI50
aI-71
aI21
aI-52
aI71
aI-72
aI-21
aI89
aI5
aI88
aI72
aI-25
aI83
aI13
aI2
aI88
aI75
aI78
aI-73
aI-19
aI84
aa(lp76
I29
aI-3
aI-9
aI44
aI19
aI82
aI85
aI-73
aI22
aI-68
aI-47
aI-84
aI64
aI-44
aI49
aI58
aI-76
aI50
aI-25
aI21
aI-46
aI-19
aI-68
aI-76
aI-79
aI-76
aI10
aI71
aI-79
aI90
aI-30
aI66
aI-78
aI-54
aI-80
aI-22
aI-70
aI-19
aI60
aI0
aI76
aI28
aI19
aI9
aI67
aI-49
aI-78
aI-65
aI63
aI90
aI-7
aI-62
aI51
aI12
aI21
aI55
aI-63
aI-54
aI12
aI-72
aI15
aI10
aI-27
aI-10
aI-70
aI37
aI-7
aI15
aI6
aI55
aI84
aI-4
aI-68
aI-49
aI-41
aI-78
aI73
aI61
aI-62
aI-4
aI-37
aI23
aI39
aI-19
aI-34
aI72
aI61
aI-13
aI-72
aI42
aa(lp77
I-90
aI66
aI64
aI-84
aI-11
aI-17
aI-22
aI31
aI-42
aI-53
aI85
aI68
aI-74
aI20
aI38
aI-18
aI58
aI34
aI90
aI8
aI-72
aI-9
aI35
aI-53
aI-16
aI79
aI39
aI-71
aI73
aI-81
aI-10
aI-78
aI45
aI-27
aI0
aI-46
aI47
aI13
aI-31
aI6
aI-1
aI63
aI-9
aI-50
aI-80
aI-41
aI73
aI73
aI-63
aI-40
aI-58
aI-14
aI67
aI-63
aI12
aI82
aI17
aI80
aI-76
aI51
aI-56
aI28
aI-89
aI-67
aI26
aI11
aI-29
aI-3
aI45
aI54
aI67
aI62
aI-22
aI86
aI-19
aI21
aI3
aI70
aI-53
aI-2
aI-45
aI48
aI-14
aI84
aI8
aI75
aI15
aI-46
aI53
aI39
aa(lp78
I-22
aI65
aI-56
aI-49
aI82
aI-28
aI3
aI7
aI-75
aI80
aI-48
aI-6
aI-80
aI-41
aI37
aI12
aI89
aI56
aI8
aI-89
aI-59
aI71
aI-32
aI-3
aI-6
aI-90
aI24
aI46
aI-89
aI18
aI77
aI21
aI47
aI45
aI-69
aI36
aI-10
aI-22
aI-17
aI-57
aI-55
aI16
aI-61
aI-15
aI-41
aI-83
aI4
aI-42
aI-75
aI10
aI-83
aI4
aI10
aI-13
aI26
aI-69
aI-30
aI-71
aI-61
aI-18
aI-28
aI7
aI-53
aI-29
aI-6
aI-56
aI32
aI21
aI15
aI-24
aI-24
aI45
aI-22
aI-80
aI-48
aI19
aI-31
aI56
aI39
aI72
aI-32
aI10
aI83
aI-30
aI12
aI42
aI89
aI77
aI7
aI-24
aa(lp79
I79
aI-21
aI-69
aI-46
aI41
aI56
aI-23
aI61
aI54
aI-72
aI-9
aI69
aI-84
aI27
aI-40
aI-15
aI7
aI-38
aI8
aI-40
aI65
aI-85
aI62
aI-31
aI64
aI-90
aI44
aI77
aI-28
aI25
aI-30
aI-40
aI-37
aI-14
aI21
aI8
aI-29
aI54
aI30
aI-85
aI50
aI-30
aI77
aI-88
aI-61
aI53
aI-85
aI-5
aI88
aI7
aI11
aI16
aI68
aI-1
aI-61
aI-1
aI-19
aI69
aI61
aI83
aI75
aI26
aI41
aI45
aI37
aI-52
aI-40
aI76
aI45
aI-22
aI-15
aI-26
aI13
aI-28
aI-52
aI-84
aI25
aI20
aI1
aI38
aI-36
aI13
aI-44
aI49
aI73
aI52
aI-64
aI-58
aI-4
aI43
aa(lp80
I61
aI60
aI-65
aI-23
aI53
aI36
aI60
aI45
aI-26
aI-20
aI66
aI-10
aI-3
aI-52
aI-74
aI79
aI-5
aI41
aI-35
aI-79
aI-61
aI57
aI51
aI32
aI-22
aI-51
aI-87
aI18
aI-71
aI42
aI2
aI24
aI77
aI27
aI-73
aI17
aI73
aI-3
aI-59
aI24
aI24
aI16
aI8
aI-32
aI79
aI80
aI-9
aI-57
aI-90
aI-62
aI-48
aI-72
aI-4
aI37
aI85
aI80
aI-87
aI-87
aI42
aI65
aI85
aI4
aI21
aI-1
aI8
aI-10
aI-6
aI-81
aI-49
aI19
aI4
aI58
aI-84
aI35
aI76
aI75
aI83
aI14
aI10
aI34
aI-65
aI-17
aI61
aI-48
aI18
aI-83
aI-86
aI-84
aI-11
aI-48
aa(lp81
I-34
aI18
aI-5
aI20
aI12
aI44
aI-36
aI35
aI-27
aI-13
aI-25
aI46
aI-67
aI-84
aI-74
aI18
aI-82
aI31
aI-47
aI-22
aI60
aI-70
aI29
aI-80
aI-18
aI-77
aI-50
aI-14
aI-58
aI-38
aI-39
aI71
aI-89
aI-55
aI17
aI65
aI-67
aI-36
aI-5
aI-61
aI31
aI-14
aI80
aI46
aI27
aI43
aI-20
aI53
aI85
aI66
aI28
aI8
aI-39
aI-37
aI-89
aI17
aI17
aI-38
aI71
aI7
aI21
aI-51
aI-84
aI48
aI-34
aI88
aI-61
aI90
aI-44
aI78
aI76
aI-81
aI68
aI-48
aI1
aI-58
aI-52
aI28
aI-59
aI55
aI78
aI-70
aI63
aI-33
aI-86
aI87
aI71
aI36
aI69
aI60
aa(lp82
I22
aI74
aI-56
aI54
aI-66
aI-3
aI-14
aI-37
aI73
aI24
aI15
aI-16
aI-67
aI59
aI8
aI-20
aI68
aI30
aI16
aI-86
aI-63
aI-12
aI41
aI-39
aI50
aI14
aI52
aI-11
aI42
aI59
aI56
aI90
aI29
aI-75
aI-63
aI55
aI-42
aI-75
aI81
aI-71
aI27
aI44
aI2
aI-26
aI20
aI-28
aI72
aI-59
aI-44
aI-58
aI-76
aI84
aI77
aI26
aI-21
aI69
aI40
aI58
aI-13
aI73
aI-17
aI2
aI19
aI-79
aI-17
aI64
aI-43
aI47
aI-10
aI-4
aI33
aI60
aI23
aI-37
aI62
aI-8
aI-87
aI75
aI-31
aI80
aI68
aI44
aI8
aI-71
aI-87
aI62
aI43
aI-17
aI-52
aI-57
aa(lp83
I60
aI-29
aI78
aI-8
aI-1
aI67
aI46
aI-73
aI-25
aI73
aI-29
aI-73
aI-68
aI-30
aI64
aI67
aI56
aI-37
aI-79
aI16
aI35
aI90
aI-81
aI-42
aI39
aI-1
aI-22
aI13
aI-59
aI-55
aI-41
aI76
aI-73
aI-76
aI-44
aI6
aI-54
aI-18
aI33
aI81
aI26
aI-30
aI-69
aI-74
aI53
aI-16
aI29
aI-16
aI90
aI78
aI42
aI-46
aI4
aI8
aI78
aI72
aI-29
aI-14
aI-21
aI19
aI53
aI46
aI44
aI-79
aI68
aI86
aI30
aI53
aI55
aI-68
aI-14
aI-15
aI2
aI46
aI-86
aI81
aI-14
aI-24
aI-10
aI64
aI84
aI12
aI-19
aI-27
aI-28
aI-71
aI66
aI-39
aI-25
aI25
aa(lp84
I62
aI21
aI-64
aI32
aI-43
aI13
aI-80
aI-7
aI-13
aI72
aI-84
aI-46
aI-64
aI88
aI16
aI-19
aI-55
aI-4
aI44
aI4
aI-34
aI-22
aI63
aI38
aI-85
aI43
aI-61
aI31
aI-4
aI55
aI-80
aI5
aI22
aI-5
aI-65
aI-9
aI52
aI63
aI24
aI48
aI32
aI-18
aI42
aI-13
aI-61
aI88
aI88
aI-61
aI-66
aI-30
aI45
aI85
aI-38
aI-63
aI-89
aI-17
aI-23
aI28
aI77
aI78
aI-49
aI-17
aI-20
aI-2
aI68
aI50
aI-2
aI51
aI30
aI-53
aI-31
aI88
aI49
aI-3
aI60
aI30
aI7
aI4
aI-88
aI-27
aI78
aI41
aI-64
aI11
aI16
aI-7
aI60
aI-47
aI84
aI1
aa(lp85
I47
aI11
aI-16
aI88
aI-27
aI42
aI-31
aI-30
aI45
aI58
aI-68
aI71
aI26
aI73
aI-23
aI0
aI-28
aI67
aI78
aI11
aI-53
aI-24
aI53
aI72
aI-85
aI81
aI11
aI10
aI59
aI-35
aI-42
aI31
aI-25
aI0
aI-90
aI-49
aI79
aI22
aI85
aI24
aI-68
aI-25
aI56
aI-73
aI17
aI-1
aI58
aI84
aI-75
aI44
aI13
aI-71
aI-73
aI-30
aI69
aI-5
aI5
aI19
aI-30
aI44
aI-35
aI84
aI41
aI-66
aI-73
aI61
aI-66
aI90
aI33
aI56
aI-66
aI31
aI42
aI-54
aI-8
aI-47
aI36
aI-87
aI22
aI-5
aI-53
aI78
aI-14
aI-60
aI-64
aI-8
aI86
aI20
aI-67
aI-88
aa(lp86
I-5
aI67
aI-71
aI-43
aI-52
aI26
aI-19
aI54
aI-43
aI-50
aI42
aI24
aI-61
aI8
aI-47
aI-82
aI-9
aI-39
aI-17
aI45
aI61
aI21
aI6
aI48
aI-72
aI-10
aI-19
aI20
aI57
aI-48
aI90
aI19
aI-72
aI18
aI-8
aI-30
aI-57
aI-49
aI16
aI89
aI-50
aI65
aI-81
aI0
aI76
aI-45
aI79
aI-54
aI10
aI-42
aI11
aI58
aI44
aI27
aI84
aI49
aI-11
aI-86
aI-78
aI-30
aI23
aI-16
aI-79
aI-63
aI78
aI-3
aI-13
aI67
aI-10
aI-45
aI74
aI22
aI5
aI39
aI77
aI-30
aI86
aI67
aI67
aI31
aI73
aI-90
aI-80
aI23
aI22
aI41
aI10
aI-4
aI39
aI-14
aa(lp87
I-3
aI29
aI63
aI65
aI-38
aI79
aI-12
aI25
aI-68
aI82
aI50
aI-89
aI-18
aI39
aI-81
aI52
aI41
aI21
aI-36
aI-71
aI89
aI70
aI-27
aI-2
aI85
aI71
aI-3
aI-71
aI28
aI64
aI61
aI-74
aI-59
aI12
aI-63
aI36
aI24
aI-1
aI-18
aI-56
aI25
aI-64
aI-31
aI-51
aI-5
aI-62
aI-24
aI-32
aI-53
aI9
aI32
aI-31
aI67
aI8
aI86
aI-7
aI-57
aI-3
aI37
aI54
aI-61
aI-49
aI-29
aI-58
aI-39
aI34
aI60
aI18
aI-39
aI18
aI-36
aI-36
aI-52
aI22
aI-69
aI45
aI84
aI27
aI1
aI74
aI73
aI13
aI-73
aI36
aI-64
aI-63
aI-85
aI-79
aI60
aI-66
aa(lp88
I78
aI-51
aI-89
aI72
aI-77
aI-15
aI-21
aI-3
aI50
aI54
aI-67
aI90
aI42
aI46
aI36
aI51
aI40
aI66
aI4
aI-17
aI30
aI25
aI-28
aI73
aI-2
aI7
aI-32
aI64
aI-90
aI-36
aI-38
aI-38
aI25
aI-7
aI73
aI6
aI60
aI86
aI-18
aI-82
aI32
aI-79
aI-62
aI-18
aI-25
aI77
aI-21
aI30
aI75
aI-67
aI50
aI-60
aI30
aI19
aI-69
aI55
aI-43
aI-44
aI-75
aI-19
aI-70
aI-79
aI-5
aI-44
aI28
aI23
aI37
aI11
aI-66
aI-65
aI-62
aI4
aI59
aI-51
aI84
aI-17
aI-46
aI10
aI-18
aI50
aI16
aI-8
aI-76
aI-13
aI44
aI10
aI-82
aI-83
aI-46
aI-1
aa(lp89
I-49
aI-84
aI14
aI13
aI1
aI90
aI36
aI-65
aI56
aI-22
aI27
aI-39
aI23
aI-14
aI31
aI7
aI-21
aI31
aI-5
aI60
aI7
aI-53
aI17
aI49
aI50
aI55
aI-23
aI27
aI55
aI-3
aI24
aI-34
aI-75
aI57
aI-22
aI83
aI85
aI66
aI-56
aI-81
aI79
aI32
aI28
aI29
aI46
aI-66
aI54
aI-25
aI3
aI14
aI10
aI-62
aI64
aI-75
aI-33
aI8
aI63
aI-39
aI3
aI11
aI11
aI17
aI-88
aI15
aI59
aI40
aI17
aI83
aI15
aI71
aI-82
aI73
aI30
aI-22
aI-48
aI61
aI55
aI-75
aI-59
aI35
aI-90
aI-79
aI-62
aI-28
aI63
aI-67
aI36
aI-42
aI-23
aI82
aa(lp90
I-75
aI-63
aI-71
aI-29
aI69
aI-3
aI33
aI-49
aI-33
aI-18
aI74
aI-56
aI61
aI14
aI-87
aI21
aI-49
aI-52
aI-16
aI90
aI45
aI23
aI-25
aI70
aI-65
aI-21
aI-6
aI-83
aI-55
aI-9
aI-12
aI-27
aI14
aI-60
aI-44
aI-53
aI-69
aI-85
aI31
aI84
aI-62
aI63
aI13
aI63
aI-70
aI85
aI-19
aI22
aI50
aI84
aI31
aI81
aI-80
aI27
aI-61
aI89
aI64
aI-40
aI59
aI-15
aI73
aI-48
aI-6
aI-67
aI11
aI24
aI-8
aI-1
aI84
aI38
aI-11
aI85
aI-5
aI28
aI-37
aI80
aI-39
aI-37
aI-87
aI54
aI-88
aI19
aI68
aI40
aI42
aI-57
aI29
aI41
aI-83
aI-12
aa(lp91
I-62
aI47
aI0
aI-20
aI41
aI-82
aI37
aI39
aI62
aI33
aI26
aI59
aI63
aI-89
aI-43
aI56
aI-34
aI79
aI-90
aI12
aI15
aI-8
aI35
aI-13
aI-24
aI-56
aI-4
aI-13
aI30
aI4
aI21
aI41
aI87
aI-1
aI-60
aI40
aI38
aI-38
aI-86
aI-65
aI37
aI-61
aI-50
aI85
aI10
aI-12
aI-10
aI-64
aI-32
aI28
aI55
aI-82
aI24
aI-29
aI-88
aI23
aI-79
aI53
aI-77
aI52
aI71
aI29
aI-17
aI46
aI-60
aI56
aI89
aI2
aI9
aI2
aI89
aI-77
aI43
aI-89
aI-11
aI58
aI42
aI60
aI40
aI47
aI43
aI-51
aI39
aI-61
aI85
aI61
aI-70
aI-78
aI-4
aI64
aa(lp92
I50
aI-25
aI66
aI-90
aI33
aI-75
aI17
aI9
aI-76
aI-19
aI36
aI-72
aI-89
aI21
aI85
aI66
aI-35
aI34
aI-49
aI7
aI71
aI-58
aI-1
aI35
aI58
aI-26
aI58
aI36
aI59
aI-76
aI-8
aI-38
aI0
aI-44
aI-89
aI53
aI14
aI-33
aI-35
aI-12
aI-47
aI38
aI32
aI12
aI-82
aI-22
aI72
aI9
aI-51
aI80
aI-32
aI-59
aI81
aI54
aI54
aI57
aI14
aI50
aI-1
aI31
aI13
aI-52
aI-41
aI-72
aI-41
aI-16
aI90
aI37
aI-45
aI52
aI51
aI56
aI45
aI52
aI60
aI81
aI64
aI-76
aI-34
aI-10
aI-8
aI20
aI17
aI-83
aI55
aI28
aI18
aI-27
aI53
aI10
aa(lp93
I75
aI13
aI65
aI79
aI-46
aI-37
aI-22
aI-17
aI61
aI-88
aI-83
aI55
aI-51
aI72
aI-35
aI71
aI73
aI67
aI-26
aI-61
aI4
aI43
aI-72
aI89
aI19
aI-67
aI-53
aI-74
aI75
aI4
aI35
aI-7
aI-70
aI-68
aI50
aI76
aI-86
aI47
aI-41
aI52
aI48
aI76
aI-46
aI75
aI-84
aI-51
aI1
aI83
aI-10
aI-62
aI-84
aI18
aI56
aI40
aI59
aI69
aI-68
aI69
aI64
aI-29
aI51
aI-13
aI-40
aI-89
aI36
aI30
aI-16
aI-42
aI-37
aI-20
aI-53
aI35
aI47
aI-55
aI55
aI-23
aI-30
aI-36
aI38
aI62
aI-73
aI89
aI-28
aI-90
aI-83
aI40
aI20
aI-34
aI-13
aI74
aa(lp94
I45
aI75
aI56
aI5
aI40
aI79
aI17
aI63
aI70
aI62
aI-10
aI67
aI27
aI-80
aI20
aI23
aI-67
aI56
aI-90
aI-8
aI27
aI-8
aI-52
aI42
aI24
aI-87
aI35
aI74
aI45
aI73
aI25
aI-50
aI-49
aI-47
aI-13
aI-65
aI-1
aI-70
aI84
aI-18
aI-58
aI-70
aI-56
aI40
aI2
aI-20
aI-39
aI-20
aI84
aI86
aI9
aI-18
aI57
aI-38
aI71
aI24
aI83
aI58
aI-39
aI-34
aI36
aI57
aI86
aI46
aI26
aI-86
aI-9
aI-7
aI-89
aI-35
aI-15
aI-25
aI71
aI7
aI-43
aI-52
aI12
aI12
aI39
aI20
aI32
aI14
aI-47
aI-32
aI13
aI-3
aI10
aI51
aI-26
aI-84
aa(lp95
I10
aI-85
aI-66
aI32
aI1
aI38
aI30
aI57
aI-16
aI-10
aI-67
aI-22
aI17
aI-88
aI-21
aI9
aI-49
aI-13
aI25
aI-78
aI84
aI-13
aI-36
aI-55
aI3
aI73
aI-22
aI-53
aI-33
aI-31
aI51
aI35
aI-49
aI3
aI-13
aI-38
aI0
aI31
aI32
aI72
aI40
aI-72
aI-83
aI37
aI-50
aI10
aI88
aI10
aI26
aI-51
aI-47
aI-21
aI-8
aI-74
aI32
aI-46
aI3
aI-87
aI-65
aI-34
aI25
aI-79
aI45
aI8
aI1
aI-25
aI54
aI34
aI-12
aI-82
aI-34
aI-82
aI-59
aI51
aI62
aI7
aI-78
aI89
aI39
aI33
aI-25
aI54
aI45
aI68
aI-73
aI8
aI58
aI79
aI-68
aI69
aa(lp96
I49
aI-77
aI1
aI28
aI62
aI15
aI-43
aI34
aI-16
aI49
aI-34
aI-42
aI84
aI81
aI5
aI57
aI-63
aI-14
aI-82
aI-68
aI-8
aI49
aI40
aI-63
aI32
aI80
aI79
aI-51
aI-49
aI-61
aI13
aI-11
aI60
aI-83
aI15
aI-44
aI69
aI51
aI-81
aI-84
aI1
aI-54
aI-2
aI63
aI23
aI-83
aI73
aI-1
aI54
aI55
aI42
aI17
aI25
aI-11
aI-65
aI20
aI84
aI14
aI60
aI-1
aI53
aI90
aI84
aI62
aI72
aI-64
aI-6
aI-63
aI53
aI44
aI31
aI1
aI18
aI-67
aI-64
aI-60
aI39
aI-75
aI-26
aI68
aI-40
aI-88
aI70
aI-68
aI-71
aI-50
aI36
aI44
aI-21
aI-65
aa(lp97
I-90
aI74
aI-18
aI12
aI-58
aI-76
aI-27
aI-38
aI-36
aI-57
aI-87
aI-19
aI54
aI-19
aI0
aI42
aI15
aI-31
aI-54
aI-59
aI-20
aI-29
aI37
aI-61
aI-29
aI11
aI-2
aI-46
aI-12
aI-33
aI90
aI-51
aI-3
aI-17
aI90
aI-49
aI-79
aI-12
aI31
aI40
aI41
aI46
aI66
aI-84
aI-88
aI-31
aI-60
aI23
aI39
aI-54
aI67
aI-67
aI90
aI34
aI63
aI-21
aI-65
aI12
aI-86
aI35
aI-34
aI49
aI31
aI-38
aI48
aI24
aI-3
aI-87
aI68
aI-29
aI-82
aI71
aI-22
aI-42
aI-70
aI88
aI38
aI15
aI-25
aI-88
aI-70
aI-20
aI-20
aI-26
aI-84
aI-5
aI61
aI-74
aI26
aI-66
aa(lp98
I-11
aI-40
aI-66
aI-35
aI81
aI80
aI41
aI87
aI72
aI-75
aI7
aI17
aI19
aI-20
aI87
aI64
aI80
aI46
aI83
aI-25
aI-6
aI34
aI40
aI-1
aI44
aI46
aI-17
aI83
aI-84
aI-11
aI-46
aI-72
aI63
aI-59
aI69
aI37
aI4
aI-45
aI88
aI-13
aI17
aI38
aI-86
aI-64
aI-81
aI60
aI-39
aI89
aI-71
aI-52
aI68
aI42
aI85
aI-42
aI-23
aI1
aI6
aI-5
aI-25
aI3
aI74
aI60
aI40
aI3
aI31
aI-19
aI-32
aI-63
aI-68
aI-32
aI45
aI75
aI56
aI33
aI47
aI-5
aI-59
aI-28
aI-18
aI-69
aI-18
aI70
aI18
aI-67
aI-72
aI74
aI-20
aI85
aI26
aI24
aa(lp99
I15
aI19
aI70
aI30
aI55
aI-29
aI-69
aI-44
aI-89
aI-24
aI-39
aI-50
aI-83
aI-46
aI40
aI-80
aI-81
aI-35
aI63
aI-1
aI-8
aI-22
aI56
aI50
aI55
aI19
aI-50
aI47
aI67
aI9
aI8
aI86
aI66
aI-73
aI-28
aI39
aI-38
aI28
aI-9
aI12
aI-88
aI57
aI-11
aI84
aI-22
aI-6
aI42
aI19
aI-50
aI-1
aI-22
aI-34
aI-84
aI86
aI-57
aI49
aI-79
aI48
aI7
aI-18
aI4
aI-6
aI68
aI88
aI-34
aI-57
aI28
aI59
aI-51
aI-47
aI-65
aI13
aI26
aI77
aI59
aI47
aI4
aI7
aI5
aI-51
aI-46
aI17
aI86
aI68
aI59
aI-2
aI11
aI-3
aI-1
aI-28
aa(lp100
I4
aI-87
aI24
aI-86
aI25
aI-57
aI-60
aI12
aI-25
aI-6
aI18
aI-22
aI-46
aI13
aI8
aI-43
aI18
aI33
aI7
aI-57
aI52
aI18
aI52
aI71
aI-74
aI-22
aI51
aI-75
aI-63
aI84
aI-61
aI88
aI12
aI-51
aI26
aI-35
aI-68
aI3
aI48
aI-31
aI11
aI-29
aI17
aI68
aI-20
aI35
aI-43
aI-59
aI-81
aI78
aI-27
aI-65
aI-28
aI-42
aI-4
aI-13
aI56
aI57
aI5
aI-55
aI-72
aI50
aI-27
aI-44
aI-48
aI78
aI-8
aI26
aI-70
aI-83
aI87
aI-88
aI-71
aI58
aI68
aI-15
aI4
aI37
aI-50
aI83
aI-76
aI-31
aI5
aI41
aI-55
aI-60
aI70
aI21
aI-41
aI-4
aa.